     VMA      LMA     Size Align Out     In      Symbol
       0        0        0     1 PAGE_SIZE = 512
       0        0        0     1 STACK_MIN_SIZE = DEFINED ( stack_min_size ) ? stack_min_size : 1500
       0        0        0     1 END_STACK = ORIGIN ( SRAM ) + LENGTH ( SRAM )
c0de0000 c0de0000    10968     8 .text
c0de0000 c0de0000        0     1         _text = .
c0de0000 c0de0000        0     1         _nvram_start = .
c0de0000 c0de0000       14     2         build/flex/obj/sdk/lib_standard_app/main.o:(.boot)
c0de0000 c0de0000        0     1                 $t.3
c0de0001 c0de0001       14     1                 main
c0de0014 c0de0014        0     1         _code = .
c0de0014 c0de0014       4a     2         build/flex/obj/app/src/address.o:(.text.address_from_pubkey)
c0de0014 c0de0014        0     1                 $t.0
c0de0015 c0de0015       4a     1                 address_from_pubkey
c0de005e c0de005e      22e     2         build/flex/obj/app/src/apdu/dispatcher.o:(.text.apdu_dispatcher)
c0de005e c0de005e        0     1                 $t.0
c0de005f c0de005f      22e     1                 apdu_dispatcher
c0de028c c0de028c        e     2         build/flex/obj/app/src/apdu/dispatcher.o:(.text.io_send_sw)
c0de028c c0de028c        0     1                 $t.1
c0de028d c0de028d        e     1                 io_send_sw
c0de029a c0de029a        8     2         build/flex/obj/app/src/apdu/dispatcher.o:(.text.OUTLINED_FUNCTION_0)
c0de029a c0de029a        0     1                 $t.2
c0de029b c0de029b        8     1                 OUTLINED_FUNCTION_0
c0de02a4 c0de02a4       88     4         build/flex/obj/app/src/app_main.o:(.text.app_main)
c0de02a4 c0de02a4        0     1                 $t.0
c0de02a5 c0de02a5       88     1                 app_main
c0de031c c0de031c        0     1                 $d.1
c0de032c c0de032c       28     4         build/flex/obj/app/src/handler/get_app_name.o:(.text.handler_get_app_name)
c0de032c c0de032c        0     1                 $t.0
c0de032d c0de032d       28     1                 handler_get_app_name
c0de0350 c0de0350        0     1                 $d.1
c0de0354 c0de0354       98     4         build/flex/obj/app/src/handler/get_public_key.o:(.text.handler_get_public_key)
c0de0354 c0de0354        0     1                 $t.0
c0de0355 c0de0355       98     1                 handler_get_public_key
c0de03e8 c0de03e8        0     1                 $d.1
c0de03ec c0de03ec        e     2         build/flex/obj/app/src/handler/get_public_key.o:(.text.io_send_sw)
c0de03ec c0de03ec        0     1                 $t.2
c0de03ed c0de03ed        e     1                 io_send_sw
c0de03fa c0de03fa       2e     2         build/flex/obj/app/src/handler/get_version.o:(.text.handler_get_version)
c0de03fa c0de03fa        0     1                 $t.0
c0de03fb c0de03fb       2e     1                 handler_get_version
c0de0428 c0de0428      128     4         build/flex/obj/app/src/handler/sign_tx.o:(.text.handler_sign_tx)
c0de0428 c0de0428        0     1                 $t.0
c0de0429 c0de0429      128     1                 handler_sign_tx
c0de0548 c0de0548        0     1                 $d.1
c0de0550 c0de0550        e     2         build/flex/obj/app/src/handler/sign_tx.o:(.text.io_send_sw)
c0de0550 c0de0550        0     1                 $t.2
c0de0551 c0de0551        e     1                 io_send_sw
c0de055e c0de055e       10     2         build/flex/obj/app/src/handler/zkn_magicbox.o:(.text.handler_cmd_dummy)
c0de055e c0de055e        0     1                 $t.0
c0de055f c0de055f       10     1                 handler_cmd_dummy
c0de056e c0de056e       16     2         build/flex/obj/app/src/handler/zkn_magicbox.o:(.text.io_send_response_pointer)
c0de056e c0de056e        0     1                 $t.1
c0de056f c0de056f       16     1                 io_send_response_pointer
c0de0584 c0de0584        e     2         build/flex/obj/app/src/handler/zkn_magicbox.o:(.text.io_send_sw)
c0de0584 c0de0584        0     1                 $t.2
c0de0585 c0de0585        e     1                 io_send_sw
c0de0592 c0de0592       30     2         build/flex/obj/app/src/handler/zkn_magicbox.o:(.text.handler_cmd_keccakH)
c0de0592 c0de0592        0     1                 $t.3
c0de0593 c0de0593       30     1                 handler_cmd_keccakH
c0de05c4 c0de05c4       70     4         build/flex/obj/app/src/handler/zkn_magicbox.o:(.text.handler_cmd_keccak_prng)
c0de05c4 c0de05c4        0     1                 $t.4
c0de05c5 c0de05c5       70     1                 handler_cmd_keccak_prng
c0de0630 c0de0630        0     1                 $d.5
c0de0634 c0de0634       1e     2         build/flex/obj/app/src/handler/zkn_magicbox.o:(.text.handler_cmd_sample_in_ball)
c0de0634 c0de0634        0     1                 $t.6
c0de0635 c0de0635       1e     1                 handler_cmd_sample_in_ball
c0de0652 c0de0652       28     2         build/flex/obj/app/src/handler/zkn_magicbox.o:(.text.handler_cmd_keygen_core_dilithium)
c0de0652 c0de0652        0     1                 $t.7
c0de0653 c0de0653       28     1                 handler_cmd_keygen_core_dilithium
c0de067a c0de067a       26     2         build/flex/obj/app/src/handler/zkn_magicbox.o:(.text.handler_cmd_keygen_dilithium)
c0de067a c0de067a        0     1                 $t.8
c0de067b c0de067b       26     1                 handler_cmd_keygen_dilithium
c0de06a0 c0de06a0       d0     4         build/flex/obj/app/src/handler/zkn_magicbox.o:(.text.handler_cmd_sign_dilithium)
c0de06a0 c0de06a0        0     1                 $t.9
c0de06a1 c0de06a1       d0     1                 handler_cmd_sign_dilithium
c0de0768 c0de0768        0     1                 $d.10
c0de0770 c0de0770       44     4         build/flex/obj/app/src/handler/zkn_magicbox.o:(.text.handler_cmd_verify_dilithium)
c0de0770 c0de0770        0     1                 $t.11
c0de0771 c0de0771       44     1                 handler_cmd_verify_dilithium
c0de07ac c0de07ac        0     1                 $d.12
c0de07b4 c0de07b4       20     4         build/flex/obj/app/src/handler/zkn_magicbox.o:(.text.handler_cmd_get_sig_chunk)
c0de07b4 c0de07b4        0     1                 $t.13
c0de07b5 c0de07b5       20     1                 handler_cmd_get_sig_chunk
c0de07d0 c0de07d0        0     1                 $d.14
c0de07d4 c0de07d4       20     4         build/flex/obj/app/src/handler/zkn_magicbox.o:(.text.handler_cmd_get_pk_chunk)
c0de07d4 c0de07d4        0     1                 $t.15
c0de07d5 c0de07d5       20     1                 handler_cmd_get_pk_chunk
c0de07f0 c0de07f0        0     1                 $d.16
c0de07f4 c0de07f4       5c     4         build/flex/obj/app/src/handler/zkn_magicbox.o:(.text.handler_cmd_Poseidon_ithRC)
c0de07f4 c0de07f4        0     1                 $t.17
c0de07f5 c0de07f5       5c     1                 handler_cmd_Poseidon_ithRC
c0de084c c0de084c        0     1                 $d.18
c0de0850 c0de0850      174     4         build/flex/obj/app/src/handler/zkn_magicbox.o:(.text.handler_cmd_tEdwards)
c0de0850 c0de0850        0     1                 $t.19
c0de0851 c0de0851      174     1                 handler_cmd_tEdwards
c0de09b4 c0de09b4        0     1                 $d.20
c0de09c4 c0de09c4        8     2         build/flex/obj/app/src/handler/zkn_magicbox.o:(.text.OUTLINED_FUNCTION_0)
c0de09c4 c0de09c4        0     1                 $t.21
c0de09c5 c0de09c5        8     1                 OUTLINED_FUNCTION_0
c0de09cc c0de09cc        8     2         build/flex/obj/app/src/handler/zkn_magicbox.o:(.text.OUTLINED_FUNCTION_1)
c0de09cc c0de09cc        0     1                 $t.22
c0de09cd c0de09cd        8     1                 OUTLINED_FUNCTION_1
c0de09d4 c0de09d4        8     2         build/flex/obj/app/src/handler/zkn_magicbox.o:(.text.OUTLINED_FUNCTION_2)
c0de09d4 c0de09d4        0     1                 $t.23
c0de09d5 c0de09d5        8     1                 OUTLINED_FUNCTION_2
c0de09dc c0de09dc       44     4         build/flex/obj/app/src/helper/send_reponse.o:(.text.helper_send_response_pubkey)
c0de09dc c0de09dc        0     1                 $t.0
c0de09dd c0de09dd       44     1                 helper_send_response_pubkey
c0de0a1c c0de0a1c        0     1                 $d.1
c0de0a20 c0de0a20       18     2         build/flex/obj/app/src/helper/send_reponse.o:(.text.io_send_response_pointer)
c0de0a20 c0de0a20        0     1                 $t.2
c0de0a21 c0de0a21       18     1                 io_send_response_pointer
c0de0a38 c0de0a38       44     4         build/flex/obj/app/src/helper/send_reponse.o:(.text.helper_send_response_sig)
c0de0a38 c0de0a38        0     1                 $t.3
c0de0a39 c0de0a39       44     1                 helper_send_response_sig
c0de0a78 c0de0a78        0     1                 $d.4
c0de0a7c c0de0a7c       be     2         build/flex/obj/app/src/transaction/deserialize.o:(.text.transaction_deserialize)
c0de0a7c c0de0a7c        0     1                 $t.0
c0de0a7d c0de0a7d       be     1                 transaction_deserialize
c0de0b3a c0de0b3a       3a     2         build/flex/obj/app/src/transaction/utils.o:(.text.transaction_utils_check_encoding)
c0de0b3a c0de0b3a        0     1                 $t.0
c0de0b3b c0de0b3b       3a     1                 transaction_utils_check_encoding
c0de0b74 c0de0b74        e     2         build/flex/obj/app/src/ui/action/validate.o:(.text.validate_pubkey)
c0de0b74 c0de0b74        0     1                 $t.0
c0de0b75 c0de0b75        e     1                 validate_pubkey
c0de0b82 c0de0b82        e     2         build/flex/obj/app/src/ui/action/validate.o:(.text.io_send_sw)
c0de0b82 c0de0b82        0     1                 $t.1
c0de0b83 c0de0b83        e     1                 io_send_sw
c0de0b90 c0de0b90       a4     4         build/flex/obj/app/src/ui/action/validate.o:(.text.validate_transaction)
c0de0b90 c0de0b90        0     1                 $t.2
c0de0b91 c0de0b91       a4     1                 validate_transaction
c0de0c30 c0de0c30        0     1                 $d.3
c0de0c34 c0de0c34        6     2         build/flex/obj/app/src/ui/menu_nbgl.o:(.text.app_quit)
c0de0c34 c0de0c34        0     1                 $t.0
c0de0c35 c0de0c35        6     1                 app_quit
c0de0c3c c0de0c3c       98     4         build/flex/obj/app/src/ui/menu_nbgl.o:(.text.ui_menu_main)
c0de0c3c c0de0c3c        0     1                 $t.1
c0de0c3d c0de0c3d       98     1                 ui_menu_main
c0de0ca8 c0de0ca8        0     1                 $d.2
c0de0cd4 c0de0cd4       b4     4         build/flex/obj/app/src/ui/menu_nbgl.o:(.text.controls_callback)
c0de0cd4 c0de0cd4        0     1                 $t.3
c0de0cd5 c0de0cd5       b4     1                 controls_callback
c0de0d60 c0de0d60        0     1                 $d.4
c0de0d88 c0de0d88       7c     4         build/flex/obj/app/src/ui/menu_nbgl.o:(.text.review_warning_choice)
c0de0d88 c0de0d88        0     1                 $t.5
c0de0d89 c0de0d89       7c     1                 review_warning_choice
c0de0de8 c0de0de8        0     1                 $d.6
c0de0e04 c0de0e04        6     2         build/flex/obj/app/src/ui/menu_nbgl.o:(.text.OUTLINED_FUNCTION_0)
c0de0e04 c0de0e04        0     1                 $t.7
c0de0e05 c0de0e05        6     1                 OUTLINED_FUNCTION_0
c0de0e0c c0de0e0c       a4     4         build/flex/obj/app/src/ui/nbgl_display_address.o:(.text.ui_display_address)
c0de0e0c c0de0e0c        0     1                 $t.0
c0de0e0d c0de0e0d       a4     1                 ui_display_address
c0de0e9c c0de0e9c        0     1                 $d.1
c0de0eb0 c0de0eb0        e     2         build/flex/obj/app/src/ui/nbgl_display_address.o:(.text.io_send_sw)
c0de0eb0 c0de0eb0        0     1                 $t.2
c0de0eb1 c0de0eb1        e     1                 io_send_sw
c0de0ec0 c0de0ec0       20     4         build/flex/obj/app/src/ui/nbgl_display_address.o:(.text.review_choice)
c0de0ec0 c0de0ec0        0     1                 $t.3
c0de0ec1 c0de0ec1       20     1                 review_choice
c0de0edc c0de0edc        0     1                 $d.4
c0de0ee0 c0de0ee0      144     4         build/flex/obj/app/src/ui/nbgl_display_transaction.o:(.text.ui_display_transaction_bs_choice)
c0de0ee0 c0de0ee0        0     1                 $t.0
c0de0ee1 c0de0ee1      144     1                 ui_display_transaction_bs_choice
c0de0ff8 c0de0ff8        0     1                 $d.1
c0de1024 c0de1024        e     2         build/flex/obj/app/src/ui/nbgl_display_transaction.o:(.text.io_send_sw)
c0de1024 c0de1024        0     1                 $t.2
c0de1025 c0de1025        e     1                 io_send_sw
c0de1034 c0de1034       1c     4         build/flex/obj/app/src/ui/nbgl_display_transaction.o:(.text.review_choice)
c0de1034 c0de1034        0     1                 $t.3
c0de1035 c0de1035       1c     1                 review_choice
c0de104c c0de104c        0     1                 $d.4
c0de1050 c0de1050        6     2         build/flex/obj/app/src/ui/nbgl_display_transaction.o:(.text.ui_display_blind_signed_transaction)
c0de1050 c0de1050        0     1                 $t.5
c0de1051 c0de1051        6     1                 ui_display_blind_signed_transaction
c0de1056 c0de1056        6     2         build/flex/obj/app/src/ui/nbgl_display_transaction.o:(.text.ui_display_transaction)
c0de1056 c0de1056        0     1                 $t.6
c0de1057 c0de1057        6     1                 ui_display_transaction
c0de105c c0de105c       10     2         build/flex/obj/app/src/zknox/dilithium/fips202.o:(.text.pqcrystals_dilithium_fips202_ref_shake128_init)
c0de105c c0de105c        0     1                 $t.0
c0de105d c0de105d       10     1                 pqcrystals_dilithium_fips202_ref_shake128_init
c0de106c c0de106c       14     2         build/flex/obj/app/src/zknox/dilithium/fips202.o:(.text.keccak_init)
c0de106c c0de106c        0     1                 $t.1
c0de106d c0de106d       14     1                 keccak_init
c0de1080 c0de1080       16     2         build/flex/obj/app/src/zknox/dilithium/fips202.o:(.text.pqcrystals_dilithium_fips202_ref_shake128_absorb)
c0de1080 c0de1080        0     1                 $t.2
c0de1081 c0de1081       16     1                 pqcrystals_dilithium_fips202_ref_shake128_absorb
c0de1096 c0de1096       7c     2         build/flex/obj/app/src/zknox/dilithium/fips202.o:(.text.keccak_absorb)
c0de1096 c0de1096        0     1                 $t.3
c0de1097 c0de1097       7c     1                 keccak_absorb
c0de1112 c0de1112       16     2         build/flex/obj/app/src/zknox/dilithium/fips202.o:(.text.pqcrystals_dilithium_fips202_ref_shake128_finalize)
c0de1112 c0de1112        0     1                 $t.4
c0de1113 c0de1113       16     1                 pqcrystals_dilithium_fips202_ref_shake128_finalize
c0de1128 c0de1128       32     2         build/flex/obj/app/src/zknox/dilithium/fips202.o:(.text.keccak_finalize)
c0de1128 c0de1128        0     1                 $t.5
c0de1129 c0de1129       32     1                 keccak_finalize
c0de115a c0de115a       16     2         build/flex/obj/app/src/zknox/dilithium/fips202.o:(.text.pqcrystals_dilithium_fips202_ref_shake128_squeeze)
c0de115a c0de115a        0     1                 $t.6
c0de115b c0de115b       16     1                 pqcrystals_dilithium_fips202_ref_shake128_squeeze
c0de1170 c0de1170       52     2         build/flex/obj/app/src/zknox/dilithium/fips202.o:(.text.keccak_squeeze)
c0de1170 c0de1170        0     1                 $t.7
c0de1171 c0de1171       52     1                 keccak_squeeze
c0de11c2 c0de11c2       e8     2         build/flex/obj/app/src/zknox/dilithium/fips202.o:(.text.keccak_absorb_once)
c0de11c2 c0de11c2        0     1                 $t.9
c0de11c3 c0de11c3       e8     1                 keccak_absorb_once
c0de12aa c0de12aa        6     2         build/flex/obj/app/src/zknox/dilithium/fips202.o:(.text.pqcrystals_dilithium_fips202_ref_shake128_squeezeblocks)
c0de12aa c0de12aa        0     1                 $t.10
c0de12ab c0de12ab        6     1                 pqcrystals_dilithium_fips202_ref_shake128_squeezeblocks
c0de12b0 c0de12b0       40     2         build/flex/obj/app/src/zknox/dilithium/fips202.o:(.text.keccak_squeezeblocks)
c0de12b0 c0de12b0        0     1                 $t.11
c0de12b1 c0de12b1       40     1                 keccak_squeezeblocks
c0de12f0 c0de12f0       10     2         build/flex/obj/app/src/zknox/dilithium/fips202.o:(.text.pqcrystals_dilithium_fips202_ref_shake256_init)
c0de12f0 c0de12f0        0     1                 $t.12
c0de12f1 c0de12f1       10     1                 pqcrystals_dilithium_fips202_ref_shake256_init
c0de1300 c0de1300       16     2         build/flex/obj/app/src/zknox/dilithium/fips202.o:(.text.pqcrystals_dilithium_fips202_ref_shake256_absorb)
c0de1300 c0de1300        0     1                 $t.13
c0de1301 c0de1301       16     1                 pqcrystals_dilithium_fips202_ref_shake256_absorb
c0de1316 c0de1316       16     2         build/flex/obj/app/src/zknox/dilithium/fips202.o:(.text.pqcrystals_dilithium_fips202_ref_shake256_finalize)
c0de1316 c0de1316        0     1                 $t.14
c0de1317 c0de1317       16     1                 pqcrystals_dilithium_fips202_ref_shake256_finalize
c0de132c c0de132c       16     2         build/flex/obj/app/src/zknox/dilithium/fips202.o:(.text.pqcrystals_dilithium_fips202_ref_shake256_squeeze)
c0de132c c0de132c        0     1                 $t.15
c0de132d c0de132d       16     1                 pqcrystals_dilithium_fips202_ref_shake256_squeeze
c0de1342 c0de1342       1c     2         build/flex/obj/app/src/zknox/dilithium/fips202.o:(.text.pqcrystals_dilithium_fips202_ref_shake256_absorb_once)
c0de1342 c0de1342        0     1                 $t.16
c0de1343 c0de1343       1c     1                 pqcrystals_dilithium_fips202_ref_shake256_absorb_once
c0de135e c0de135e        6     2         build/flex/obj/app/src/zknox/dilithium/fips202.o:(.text.pqcrystals_dilithium_fips202_ref_shake256_squeezeblocks)
c0de135e c0de135e        0     1                 $t.17
c0de135f c0de135f        6     1                 pqcrystals_dilithium_fips202_ref_shake256_squeezeblocks
c0de1364 c0de1364       3a     2         build/flex/obj/app/src/zknox/dilithium/fips202.o:(.text.pqcrystals_dilithium_fips202_ref_shake256)
c0de1364 c0de1364        0     1                 $t.19
c0de1365 c0de1365       3a     1                 pqcrystals_dilithium_fips202_ref_shake256
c0de13a0 c0de13a0      e9a     4         build/flex/obj/app/src/zknox/dilithium/fips202.o:(.text.KeccakF1600_StatePermute)
c0de13a0 c0de13a0        0     1                 $t.21
c0de13a1 c0de13a1      e9a     1                 KeccakF1600_StatePermute
c0de1498 c0de1498        0     1                 $d.22
c0de149c c0de149c        0     1                 $t.23
c0de223a c0de223a       22     2         build/flex/obj/app/src/zknox/dilithium/fips202.o:(.text.store64)
c0de223a c0de223a        0     1                 $t.24
c0de223b c0de223b       22     1                 store64
c0de225c c0de225c       10     2         build/flex/obj/app/src/zknox/dilithium/fips202.o:(.text.OUTLINED_FUNCTION_0)
c0de225c c0de225c        0     1                 $t.26
c0de225d c0de225d       10     1                 OUTLINED_FUNCTION_0
c0de226c c0de226c       10     2         build/flex/obj/app/src/zknox/dilithium/fips202.o:(.text.OUTLINED_FUNCTION_2)
c0de226c c0de226c        0     1                 $t.28
c0de226d c0de226d       10     1                 OUTLINED_FUNCTION_2
c0de227c c0de227c        6     2         build/flex/obj/app/src/zknox/dilithium/fips202.o:(.text.OUTLINED_FUNCTION_3)
c0de227c c0de227c        0     1                 $t.29
c0de227d c0de227d        6     1                 OUTLINED_FUNCTION_3
c0de2282 c0de2282        8     2         build/flex/obj/app/src/zknox/dilithium/keccak256.o:(.text.keccak_init)
c0de2282 c0de2282        0     1                 $t.1
c0de2283 c0de2283        8     1                 keccak_init
c0de228a c0de228a        4     2         build/flex/obj/app/src/zknox/dilithium/keccak256.o:(.text.keccak_update)
c0de228a c0de228a        0     1                 $t.2
c0de228b c0de228b        4     1                 keccak_update
c0de228e c0de228e        4     2         build/flex/obj/app/src/zknox/dilithium/keccak256.o:(.text.keccak_final)
c0de228e c0de228e        0     1                 $t.3
c0de228f c0de228f        4     1                 keccak_final
c0de2292 c0de2292       22     2         build/flex/obj/app/src/zknox/dilithium/keccak_prng.o:(.text.inner_keccak256_init)
c0de2292 c0de2292        0     1                 $t.0
c0de2293 c0de2293       22     1                 inner_keccak256_init
c0de22b4 c0de22b4       24     2         build/flex/obj/app/src/zknox/dilithium/keccak_prng.o:(.text.inner_keccak256_inject)
c0de22b4 c0de22b4        0     1                 $t.1
c0de22b5 c0de22b5       24     1                 inner_keccak256_inject
c0de22d8 c0de22d8       2c     2         build/flex/obj/app/src/zknox/dilithium/keccak_prng.o:(.text.inner_keccak256_flip)
c0de22d8 c0de22d8        0     1                 $t.2
c0de22d9 c0de22d9       2c     1                 inner_keccak256_flip
c0de2304 c0de2304      108     2         build/flex/obj/app/src/zknox/dilithium/keccak_prng.o:(.text.inner_keccak256_extract)
c0de2304 c0de2304        0     1                 $t.3
c0de2305 c0de2305      108     1                 inner_keccak256_extract
c0de240c c0de240c       2c     2         build/flex/obj/app/src/zknox/dilithium/lowram.o:(.text.pqcrystals_dilithium2_lowram_pack_sig_h)
c0de240c c0de240c        0     1                 $t.3
c0de240d c0de240d       2c     1                 pqcrystals_dilithium2_lowram_pack_sig_h
c0de2438 c0de2438       18     2         build/flex/obj/app/src/zknox/dilithium/lowram.o:(.text.pqcrystals_dilithium2_lowram_pack_sig_h_zero)
c0de2438 c0de2438        0     1                 $t.4
c0de2439 c0de2439       18     1                 pqcrystals_dilithium2_lowram_pack_sig_h_zero
c0de2450 c0de2450       6a     2         build/flex/obj/app/src/zknox/dilithium/lowram.o:(.text.poly_challenge_compress)
c0de2450 c0de2450        0     1                 $t.8
c0de2451 c0de2451       6a     1                 poly_challenge_compress
c0de24ba c0de24ba       64     2         build/flex/obj/app/src/zknox/dilithium/lowram.o:(.text.poly_challenge_decompress)
c0de24ba c0de24ba        0     1                 $t.9
c0de24bb c0de24bb       64     1                 poly_challenge_decompress
c0de251e c0de251e       f4     2         build/flex/obj/app/src/zknox/dilithium/lowram.o:(.text.poly_schoolbook)
c0de251e c0de251e        0     1                 $t.10
c0de251f c0de251f       f4     1                 poly_schoolbook
c0de2612 c0de2612       96     2         build/flex/obj/app/src/zknox/dilithium/lowram.o:(.text.polyt0_unpack_idx)
c0de2612 c0de2612        0     1                 $t.11
c0de2613 c0de2613       96     1                 polyt0_unpack_idx
c0de26a8 c0de26a8      108     4         build/flex/obj/app/src/zknox/dilithium/lowram.o:(.text.poly_schoolbook_t1)
c0de26a8 c0de26a8        0     1                 $t.12
c0de26a9 c0de26a9      108     1                 poly_schoolbook_t1
c0de27ac c0de27ac        0     1                 $d.13
c0de27b0 c0de27b0       46     2         build/flex/obj/app/src/zknox/dilithium/lowram.o:(.text.polyt1_unpack_idx)
c0de27b0 c0de27b0        0     1                 $t.14
c0de27b1 c0de27b1       46     1                 polyt1_unpack_idx
c0de27f6 c0de27f6       3c     2         build/flex/obj/app/src/zknox/dilithium/lowram.o:(.text.polyw_pack)
c0de27f6 c0de27f6        0     1                 $t.15
c0de27f7 c0de27f7       3c     1                 polyw_pack
c0de2832 c0de2832       30     2         build/flex/obj/app/src/zknox/dilithium/lowram.o:(.text.polyw_unpack)
c0de2832 c0de2832        0     1                 $t.16
c0de2833 c0de2833       30     1                 polyw_unpack
c0de2862 c0de2862       30     2         build/flex/obj/app/src/zknox/dilithium/lowram.o:(.text.polyw_sub)
c0de2862 c0de2862        0     1                 $t.17
c0de2863 c0de2863       30     1                 polyw_sub
c0de2892 c0de2892       30     2         build/flex/obj/app/src/zknox/dilithium/lowram.o:(.text.poly_highbits)
c0de2892 c0de2892        0     1                 $t.18
c0de2893 c0de2893       30     1                 poly_highbits
c0de28c4 c0de28c4       60     4         build/flex/obj/app/src/zknox/dilithium/lowram.o:(.text.poly_lowbits)
c0de28c4 c0de28c4        0     1                 $t.19
c0de28c5 c0de28c5       60     1                 poly_lowbits
c0de2918 c0de2918        0     1                 $d.20
c0de2924 c0de2924        e     2         build/flex/obj/app/src/zknox/dilithium/lowram.o:(.text.unpack_sk_s1)
c0de2924 c0de2924        0     1                 $t.21
c0de2925 c0de2925        e     1                 unpack_sk_s1
c0de2932 c0de2932       10     2         build/flex/obj/app/src/zknox/dilithium/lowram.o:(.text.unpack_sk_s2)
c0de2932 c0de2932        0     1                 $t.22
c0de2933 c0de2933       10     1                 unpack_sk_s2
c0de2944 c0de2944       5c     4         build/flex/obj/app/src/zknox/dilithium/lowram.o:(.text.poly_uniform_pointwise_montgomery_polywadd_lowram)
c0de2944 c0de2944        0     1                 $t.23
c0de2945 c0de2945       5c     1                 poly_uniform_pointwise_montgomery_polywadd_lowram
c0de299c c0de299c        0     1                 $d.24
c0de29a0 c0de29a0       2a     2         build/flex/obj/app/src/zknox/dilithium/lowram.o:(.text.polyw_add_idx)
c0de29a0 c0de29a0        0     1                 $t.25
c0de29a1 c0de29a1       2a     1                 polyw_add_idx
c0de29ca c0de29ca       42     2         build/flex/obj/app/src/zknox/dilithium/lowram.o:(.text.poly_uniform_gamma1_lowram)
c0de29ca c0de29ca        0     1                 $t.28
c0de29cb c0de29cb       42     1                 poly_uniform_gamma1_lowram
c0de2a0c c0de2a0c       58     2         build/flex/obj/app/src/zknox/dilithium/lowram.o:(.text.polyz_unpack_inplace)
c0de2a0c c0de2a0c        0     1                 $t.29
c0de2a0d c0de2a0d       58     1                 polyz_unpack_inplace
c0de2a64 c0de2a64       46     2         build/flex/obj/app/src/zknox/dilithium/lowram.o:(.text.poly_uniform_gamma1_add_lowram)
c0de2a64 c0de2a64        0     1                 $t.31
c0de2a65 c0de2a65       46     1                 poly_uniform_gamma1_add_lowram
c0de2aac c0de2aac       74     4         build/flex/obj/app/src/zknox/dilithium/lowram.o:(.text.poly_make_hint_lowram)
c0de2aac c0de2aac        0     1                 $t.33
c0de2aad c0de2aad       74     1                 poly_make_hint_lowram
c0de2b1c c0de2b1c        0     1                 $d.34
c0de2b20 c0de2b20       7c     2         build/flex/obj/app/src/zknox/dilithium/lowram.o:(.text.unpack_sig_h_indices)
c0de2b20 c0de2b20        0     1                 $t.35
c0de2b21 c0de2b21       7c     1                 unpack_sig_h_indices
c0de2b9c c0de2b9c       3e     2         build/flex/obj/app/src/zknox/dilithium/lowram.o:(.text.poly_use_hint_lowram)
c0de2b9c c0de2b9c        0     1                 $t.36
c0de2b9d c0de2b9d       3e     1                 poly_use_hint_lowram
c0de2bda c0de2bda       10     2         build/flex/obj/app/src/zknox/dilithium/lowram.o:(.text.pack_pk_rho)
c0de2bda c0de2bda        0     1                 $t.37
c0de2bdb c0de2bdb       10     1                 pack_pk_rho
c0de2bea c0de2bea        e     2         build/flex/obj/app/src/zknox/dilithium/lowram.o:(.text.pack_pk_t1)
c0de2bea c0de2bea        0     1                 $t.38
c0de2beb c0de2beb        e     1                 pack_pk_t1
c0de2bf8 c0de2bf8        e     2         build/flex/obj/app/src/zknox/dilithium/lowram.o:(.text.pack_sk_s1)
c0de2bf8 c0de2bf8        0     1                 $t.39
c0de2bf9 c0de2bf9        e     1                 pack_sk_s1
c0de2c06 c0de2c06       10     2         build/flex/obj/app/src/zknox/dilithium/lowram.o:(.text.pack_sk_s2)
c0de2c06 c0de2c06        0     1                 $t.40
c0de2c07 c0de2c07       10     1                 pack_sk_s2
c0de2c16 c0de2c16       10     2         build/flex/obj/app/src/zknox/dilithium/lowram.o:(.text.pack_sk_t0)
c0de2c16 c0de2c16        0     1                 $t.41
c0de2c17 c0de2c17       10     1                 pack_sk_t0
c0de2c26 c0de2c26       10     2         build/flex/obj/app/src/zknox/dilithium/lowram.o:(.text.pack_sk_rho)
c0de2c26 c0de2c26        0     1                 $t.42
c0de2c27 c0de2c27       10     1                 pack_sk_rho
c0de2c36 c0de2c36       12     2         build/flex/obj/app/src/zknox/dilithium/lowram.o:(.text.pack_sk_key)
c0de2c36 c0de2c36        0     1                 $t.43
c0de2c37 c0de2c37       12     1                 pack_sk_key
c0de2c48 c0de2c48       12     2         build/flex/obj/app/src/zknox/dilithium/lowram.o:(.text.pack_sk_tr)
c0de2c48 c0de2c48        0     1                 $t.44
c0de2c49 c0de2c49       12     1                 pack_sk_tr
c0de2c5a c0de2c5a       b2     2         build/flex/obj/app/src/zknox/dilithium/lowram.o:(.text.poly_challenge_lowram)
c0de2c5a c0de2c5a        0     1                 $t.45
c0de2c5b c0de2c5b       b2     1                 poly_challenge_lowram
c0de2d0c c0de2d0c       2c     2         build/flex/obj/app/src/zknox/dilithium/lowram.o:(.text.pqcrystals_dilithium2_lowram_poly_pointwise_acc_montgomery)
c0de2d0c c0de2d0c        0     1                 $t.46
c0de2d0d c0de2d0d       2c     1                 pqcrystals_dilithium2_lowram_poly_pointwise_acc_montgomery
c0de2d38 c0de2d38       18     2         build/flex/obj/app/src/zknox/dilithium/lowram.o:(.text.OUTLINED_FUNCTION_0)
c0de2d38 c0de2d38        0     1                 $t.47
c0de2d39 c0de2d39       18     1                 OUTLINED_FUNCTION_0
c0de2d50 c0de2d50       12     2         build/flex/obj/app/src/zknox/dilithium/lowram.o:(.text.OUTLINED_FUNCTION_1)
c0de2d50 c0de2d50        0     1                 $t.48
c0de2d51 c0de2d51       12     1                 OUTLINED_FUNCTION_1
c0de2d62 c0de2d62        c     2         build/flex/obj/app/src/zknox/dilithium/lowram.o:(.text.OUTLINED_FUNCTION_2)
c0de2d62 c0de2d62        0     1                 $t.49
c0de2d63 c0de2d63        c     1                 OUTLINED_FUNCTION_2
c0de2d6e c0de2d6e        8     2         build/flex/obj/app/src/zknox/dilithium/lowram.o:(.text.OUTLINED_FUNCTION_3)
c0de2d6e c0de2d6e        0     1                 $t.50
c0de2d6f c0de2d6f        8     1                 OUTLINED_FUNCTION_3
c0de2d76 c0de2d76        a     2         build/flex/obj/app/src/zknox/dilithium/lowram.o:(.text.OUTLINED_FUNCTION_4)
c0de2d76 c0de2d76        0     1                 $t.51
c0de2d77 c0de2d77        a     1                 OUTLINED_FUNCTION_4
c0de2d80 c0de2d80       68     4         build/flex/obj/app/src/zknox/dilithium/ntt.o:(.text.pqcrystals_dilithium2_lowram_ntt)
c0de2d80 c0de2d80        0     1                 $t.0
c0de2d81 c0de2d81       68     1                 pqcrystals_dilithium2_lowram_ntt
c0de2de4 c0de2de4        0     1                 $d.1
c0de2de8 c0de2de8       94     4         build/flex/obj/app/src/zknox/dilithium/ntt.o:(.text.pqcrystals_dilithium2_lowram_invntt_tomont)
c0de2de8 c0de2de8        0     1                 $t.2
c0de2de9 c0de2de9       94     1                 pqcrystals_dilithium2_lowram_invntt_tomont
c0de2e78 c0de2e78        0     1                 $d.3
c0de2e7c c0de2e7c       1e     2         build/flex/obj/app/src/zknox/dilithium/poly.o:(.text.pqcrystals_dilithium2_lowram_poly_reduce)
c0de2e7c c0de2e7c        0     1                 $t.0
c0de2e7d c0de2e7d       1e     1                 pqcrystals_dilithium2_lowram_poly_reduce
c0de2e9a c0de2e9a       1e     2         build/flex/obj/app/src/zknox/dilithium/poly.o:(.text.pqcrystals_dilithium2_lowram_poly_caddq)
c0de2e9a c0de2e9a        0     1                 $t.1
c0de2e9b c0de2e9b       1e     1                 pqcrystals_dilithium2_lowram_poly_caddq
c0de2eb8 c0de2eb8       1e     2         build/flex/obj/app/src/zknox/dilithium/poly.o:(.text.pqcrystals_dilithium2_lowram_poly_add)
c0de2eb8 c0de2eb8        0     1                 $t.2
c0de2eb9 c0de2eb9       1e     1                 pqcrystals_dilithium2_lowram_poly_add
c0de2ed6 c0de2ed6        4     2         build/flex/obj/app/src/zknox/dilithium/poly.o:(.text.pqcrystals_dilithium2_lowram_poly_ntt)
c0de2ed6 c0de2ed6        0     1                 $t.5
c0de2ed7 c0de2ed7        4     1                 pqcrystals_dilithium2_lowram_poly_ntt
c0de2eda c0de2eda        4     2         build/flex/obj/app/src/zknox/dilithium/poly.o:(.text.pqcrystals_dilithium2_lowram_poly_invntt_tomont)
c0de2eda c0de2eda        0     1                 $t.6
c0de2edb c0de2edb        4     1                 pqcrystals_dilithium2_lowram_poly_invntt_tomont
c0de2ede c0de2ede       26     2         build/flex/obj/app/src/zknox/dilithium/poly.o:(.text.pqcrystals_dilithium2_lowram_poly_pointwise_montgomery)
c0de2ede c0de2ede        0     1                 $t.7
c0de2edf c0de2edf       26     1                 pqcrystals_dilithium2_lowram_poly_pointwise_montgomery
c0de2f04 c0de2f04       1c     2         build/flex/obj/app/src/zknox/dilithium/poly.o:(.text.pqcrystals_dilithium2_lowram_poly_power2round)
c0de2f04 c0de2f04        0     1                 $t.8
c0de2f05 c0de2f05       1c     1                 pqcrystals_dilithium2_lowram_poly_power2round
c0de2f20 c0de2f20       2c     4         build/flex/obj/app/src/zknox/dilithium/poly.o:(.text.pqcrystals_dilithium2_lowram_poly_chknorm)
c0de2f20 c0de2f20        0     1                 $t.12
c0de2f21 c0de2f21       2c     1                 pqcrystals_dilithium2_lowram_poly_chknorm
c0de2f48 c0de2f48        0     1                 $d.13
c0de2f4c c0de2f4c       82     2         build/flex/obj/app/src/zknox/dilithium/poly.o:(.text.pqcrystals_dilithium2_lowram_poly_uniform)
c0de2f4c c0de2f4c        0     1                 $t.14
c0de2f4d c0de2f4d       82     1                 pqcrystals_dilithium2_lowram_poly_uniform
c0de2fd0 c0de2fd0       44     4         build/flex/obj/app/src/zknox/dilithium/poly.o:(.text.rej_uniform)
c0de2fd0 c0de2fd0        0     1                 $t.15
c0de2fd1 c0de2fd1       44     1                 rej_uniform
c0de3010 c0de3010        0     1                 $d.16
c0de3014 c0de3014       4c     2         build/flex/obj/app/src/zknox/dilithium/poly.o:(.text.pqcrystals_dilithium2_lowram_poly_uniform_eta)
c0de3014 c0de3014        0     1                 $t.17
c0de3015 c0de3015       4c     1                 pqcrystals_dilithium2_lowram_poly_uniform_eta
c0de3060 c0de3060       56     2         build/flex/obj/app/src/zknox/dilithium/poly.o:(.text.rej_eta)
c0de3060 c0de3060        0     1                 $t.18
c0de3061 c0de3061       56     1                 rej_eta
c0de30b6 c0de30b6       a0     2         build/flex/obj/app/src/zknox/dilithium/poly.o:(.text.pqcrystals_dilithium2_lowram_polyz_unpack)
c0de30b6 c0de30b6        0     1                 $t.20
c0de30b7 c0de30b7       a0     1                 pqcrystals_dilithium2_lowram_polyz_unpack
c0de3156 c0de3156       aa     2         build/flex/obj/app/src/zknox/dilithium/poly.o:(.text.pqcrystals_dilithium2_lowram_poly_challenge)
c0de3156 c0de3156        0     1                 $t.21
c0de3157 c0de3157       aa     1                 pqcrystals_dilithium2_lowram_poly_challenge
c0de3200 c0de3200       7c     2         build/flex/obj/app/src/zknox/dilithium/poly.o:(.text.pqcrystals_dilithium2_lowram_polyeta_pack)
c0de3200 c0de3200        0     1                 $t.22
c0de3201 c0de3201       7c     1                 pqcrystals_dilithium2_lowram_polyeta_pack
c0de327c c0de327c       48     2         build/flex/obj/app/src/zknox/dilithium/poly.o:(.text.pqcrystals_dilithium2_lowram_polyt1_pack)
c0de327c c0de327c        0     1                 $t.25
c0de327d c0de327d       48     1                 pqcrystals_dilithium2_lowram_polyt1_pack
c0de32c4 c0de32c4       aa     2         build/flex/obj/app/src/zknox/dilithium/poly.o:(.text.pqcrystals_dilithium2_lowram_polyt0_pack)
c0de32c4 c0de32c4        0     1                 $t.27
c0de32c5 c0de32c5       aa     1                 pqcrystals_dilithium2_lowram_polyt0_pack
c0de336e c0de336e       62     2         build/flex/obj/app/src/zknox/dilithium/poly.o:(.text.pqcrystals_dilithium2_lowram_polyz_pack)
c0de336e c0de336e        0     1                 $t.29
c0de336f c0de336f       62     1                 pqcrystals_dilithium2_lowram_polyz_pack
c0de33d0 c0de33d0       46     2         build/flex/obj/app/src/zknox/dilithium/poly.o:(.text.pqcrystals_dilithium2_lowram_polyw1_pack)
c0de33d0 c0de33d0        0     1                 $t.30
c0de33d1 c0de33d1       46     1                 pqcrystals_dilithium2_lowram_polyw1_pack
c0de3416 c0de3416        a     2         build/flex/obj/app/src/zknox/dilithium/poly.o:(.text.OUTLINED_FUNCTION_0)
c0de3416 c0de3416        0     1                 $t.31
c0de3417 c0de3417        a     1                 OUTLINED_FUNCTION_0
c0de3420 c0de3420        c     2         build/flex/obj/app/src/zknox/dilithium/poly.o:(.text.OUTLINED_FUNCTION_1)
c0de3420 c0de3420        0     1                 $t.32
c0de3421 c0de3421        c     1                 OUTLINED_FUNCTION_1
c0de342c c0de342c        4     2         build/flex/obj/app/src/zknox/dilithium/randombytes.o:(.text.randombytes)
c0de342c c0de342c        0     1                 $t.0
c0de342d c0de342d        4     1                 randombytes
c0de3430 c0de3430       18     4         build/flex/obj/app/src/zknox/dilithium/reduce.o:(.text.pqcrystals_dilithium2_lowram_montgomery_reduce)
c0de3430 c0de3430        0     1                 $t.0
c0de3431 c0de3431       18     1                 pqcrystals_dilithium2_lowram_montgomery_reduce
c0de3440 c0de3440        0     1                 $d.1
c0de3448 c0de3448       14     4         build/flex/obj/app/src/zknox/dilithium/reduce.o:(.text.pqcrystals_dilithium2_lowram_reduce32)
c0de3448 c0de3448        0     1                 $t.2
c0de3449 c0de3449       14     1                 pqcrystals_dilithium2_lowram_reduce32
c0de3458 c0de3458        0     1                 $d.3
c0de345c c0de345c       10     4         build/flex/obj/app/src/zknox/dilithium/reduce.o:(.text.pqcrystals_dilithium2_lowram_caddq)
c0de345c c0de345c        0     1                 $t.4
c0de345d c0de345d       10     1                 pqcrystals_dilithium2_lowram_caddq
c0de3468 c0de3468        0     1                 $d.5
c0de346c c0de346c       20     4         build/flex/obj/app/src/zknox/dilithium/reduce.o:(.text.pqcrystals_dilithium2_lowram_freeze)
c0de346c c0de346c        0     1                 $t.6
c0de346d c0de346d       20     1                 pqcrystals_dilithium2_lowram_freeze
c0de3484 c0de3484        0     1                 $d.7
c0de348c c0de348c       14     2         build/flex/obj/app/src/zknox/dilithium/rounding.o:(.text.pqcrystals_dilithium2_lowram_power2round)
c0de348c c0de348c        0     1                 $t.0
c0de348d c0de348d       14     1                 pqcrystals_dilithium2_lowram_power2round
c0de34a0 c0de34a0       40     4         build/flex/obj/app/src/zknox/dilithium/rounding.o:(.text.pqcrystals_dilithium2_lowram_decompose)
c0de34a0 c0de34a0        0     1                 $t.1
c0de34a1 c0de34a1       40     1                 pqcrystals_dilithium2_lowram_decompose
c0de34d4 c0de34d4        0     1                 $d.2
c0de34e0 c0de34e0       2a     2         build/flex/obj/app/src/zknox/dilithium/rounding.o:(.text.pqcrystals_dilithium2_lowram_use_hint)
c0de34e0 c0de34e0        0     1                 $t.5
c0de34e1 c0de34e1       2a     1                 pqcrystals_dilithium2_lowram_use_hint
c0de350a c0de350a       22     2         build/flex/obj/app/src/zknox/dilithium/sign.o:(.text.pqcrystals_dilithium2_lowram_keypair)
c0de350a c0de350a        0     1                 $t.0
c0de350b c0de350b       22     1                 pqcrystals_dilithium2_lowram_keypair
c0de352c c0de352c      1ac     4         build/flex/obj/app/src/zknox/dilithium/sign.o:(.text.crypto_sign_keypair_core)
c0de352c c0de352c        0     1                 $t.1
c0de352d c0de352d      1ac     1                 crypto_sign_keypair_core
c0de36d4 c0de36d4        0     1                 $d.2
c0de36d8 c0de36d8       58     4         build/flex/obj/app/src/zknox/dilithium/sign.o:(.text.crypto_sign_signature_init)
c0de36d8 c0de36d8        0     1                 $t.3
c0de36d9 c0de36d9       58     1                 crypto_sign_signature_init
c0de3728 c0de3728        0     1                 $d.4
c0de3730 c0de3730       18     4         build/flex/obj/app/src/zknox/dilithium/sign.o:(.text.crypto_sign_signature_absorb)
c0de3730 c0de3730        0     1                 $t.5
c0de3731 c0de3731       18     1                 crypto_sign_signature_absorb
c0de3744 c0de3744        0     1                 $d.6
c0de3748 c0de3748      318     4         build/flex/obj/app/src/zknox/dilithium/sign.o:(.text.crypto_sign_signature_core)
c0de3748 c0de3748        0     1                 $t.7
c0de3749 c0de3749      318     1                 crypto_sign_signature_core
c0de3a54 c0de3a54        0     1                 $d.8
c0de3a60 c0de3a60      230     4         build/flex/obj/app/src/zknox/dilithium/sign.o:(.text.pqcrystals_dilithium2_lowram_verify)
c0de3a60 c0de3a60        0     1                 $t.11
c0de3a61 c0de3a61      230     1                 pqcrystals_dilithium2_lowram_verify
c0de3c84 c0de3c84        0     1                 $d.12
c0de3c90 c0de3c90       5c     2         build/flex/obj/app/src/zknox/dilithium/sign.o:(.text.pqcrystals_dilithium2_lowram_open)
c0de3c90 c0de3c90        0     1                 $t.13
c0de3c91 c0de3c91       5c     1                 pqcrystals_dilithium2_lowram_open
c0de3cec c0de3cec        a     2         build/flex/obj/app/src/zknox/dilithium/sign.o:(.text.OUTLINED_FUNCTION_0)
c0de3cec c0de3cec        0     1                 $t.14
c0de3ced c0de3ced        a     1                 OUTLINED_FUNCTION_0
c0de3cf8 c0de3cf8       7c     4         build/flex/obj/app/src/zknox/dilithium/smallntt_3329.o:(.text.small_ntt)
c0de3cf8 c0de3cf8        0     1                 $t.0
c0de3cf9 c0de3cf9       7c     1                 small_ntt
c0de3d6c c0de3d6c        0     1                 $d.1
c0de3d74 c0de3d74       e4     4         build/flex/obj/app/src/zknox/dilithium/smallntt_3329.o:(.text.small_invntt_tomont)
c0de3d74 c0de3d74        0     1                 $t.2
c0de3d75 c0de3d75       e4     1                 small_invntt_tomont
c0de3e4c c0de3e4c        0     1                 $d.3
c0de3e58 c0de3e58       78     4         build/flex/obj/app/src/zknox/dilithium/smallntt_3329.o:(.text.small_basemul)
c0de3e58 c0de3e58        0     1                 $t.4
c0de3e59 c0de3e59       78     1                 small_basemul
c0de3ecc c0de3ecc        0     1                 $d.5
c0de3ed0 c0de3ed0       18     2         build/flex/obj/app/src/zknox/dilithium/smallpoly.o:(.text.poly_small_ntt_copy)
c0de3ed0 c0de3ed0        0     1                 $t.0
c0de3ed1 c0de3ed1       18     1                 poly_small_ntt_copy
c0de3ee8 c0de3ee8       58     4         build/flex/obj/app/src/zknox/dilithium/smallpoly.o:(.text.poly_small_basemul)
c0de3ee8 c0de3ee8        0     1                 $t.3
c0de3ee9 c0de3ee9       58     1                 poly_small_basemul
c0de3f3c c0de3f3c        0     1                 $d.4
c0de3f40 c0de3f40       22     2         build/flex/obj/app/src/zknox/dilithium/smallpoly.o:(.text.poly_small_basemul_invntt)
c0de3f40 c0de3f40        0     1                 $t.5
c0de3f41 c0de3f41       22     1                 poly_small_basemul_invntt
c0de3f62 c0de3f62       a4     2         build/flex/obj/app/src/zknox/dilithium/smallpoly.o:(.text.small_polyeta_unpack)
c0de3f62 c0de3f62        0     1                 $t.7
c0de3f63 c0de3f63       a4     1                 small_polyeta_unpack
c0de4006 c0de4006       28     2         build/flex/obj/app/src/zknox/dilithium/symmetric-shake.o:(.text.pqcrystals_dilithium2_lowram_dilithium_shake128_stream_init)
c0de4006 c0de4006        0     1                 $t.0
c0de4007 c0de4007       28     1                 pqcrystals_dilithium2_lowram_dilithium_shake128_stream_init
c0de402e c0de402e       28     2         build/flex/obj/app/src/zknox/dilithium/symmetric-shake.o:(.text.pqcrystals_dilithium2_lowram_dilithium_shake256_stream_init)
c0de402e c0de402e        0     1                 $t.1
c0de402f c0de402f       28     1                 pqcrystals_dilithium2_lowram_dilithium_shake256_stream_init
c0de4056 c0de4056       12     2         build/flex/obj/app/src/zknox/dilithium/symmetric-shake.o:(.text.OUTLINED_FUNCTION_0)
c0de4056 c0de4056        0     1                 $t.2
c0de4057 c0de4057       12     1                 OUTLINED_FUNCTION_0
c0de4068 c0de4068       22     2         build/flex/obj/app/src/zknox/ecc/zkn_tEdwards.o:(.text.tEdwards_alloc)
c0de4068 c0de4068        0     1                 $t.0
c0de4069 c0de4069       22     1                 tEdwards_alloc
c0de408a c0de408a       d6     2         build/flex/obj/app/src/zknox/ecc/zkn_tEdwards.o:(.text.tEdwards_double)
c0de408a c0de408a        0     1                 $t.2
c0de408b c0de408b       d6     1                 tEdwards_double
c0de4160 c0de4160      130     2         build/flex/obj/app/src/zknox/ecc/zkn_tEdwards.o:(.text.tEdwards_add)
c0de4160 c0de4160        0     1                 $t.3
c0de4161 c0de4161      130     1                 tEdwards_add
c0de4290 c0de4290       ac     2         build/flex/obj/app/src/zknox/ecc/zkn_tEdwards.o:(.text.tEdwards_IsOnCurve)
c0de4290 c0de4290        0     1                 $t.4
c0de4291 c0de4291       ac     1                 tEdwards_IsOnCurve
c0de433c c0de433c      1dc     4         build/flex/obj/app/src/zknox/ecc/zkn_tEdwards.o:(.text.tEdwards_Curve_alloc_init)
c0de433c c0de433c        0     1                 $t.5
c0de433d c0de433d      1dc     1                 tEdwards_Curve_alloc_init
c0de44f8 c0de44f8        0     1                 $d.6
c0de4518 c0de4518       26     2         build/flex/obj/app/src/zknox/ecc/zkn_tEdwards.o:(.text.tEdwards_SetNeutral)
c0de4518 c0de4518        0     1                 $t.7
c0de4519 c0de4519       26     1                 tEdwards_SetNeutral
c0de453e c0de453e       7e     2         build/flex/obj/app/src/zknox/ecc/zkn_tEdwards.o:(.text.tEdwards_init)
c0de453e c0de453e        0     1                 $t.9
c0de453f c0de453f       7e     1                 tEdwards_init
c0de45bc c0de45bc       4c     2         build/flex/obj/app/src/zknox/ecc/zkn_tEdwards.o:(.text.tEdwards_export)
c0de45bc c0de45bc        0     1                 $t.10
c0de45bd c0de45bd       4c     1                 tEdwards_export
c0de4608 c0de4608       5a     2         build/flex/obj/app/src/zknox/ecc/zkn_tEdwards.o:(.text.tEdwards_normalize)
c0de4608 c0de4608        0     1                 $t.11
c0de4609 c0de4609       5a     1                 tEdwards_normalize
c0de4662 c0de4662       26     2         build/flex/obj/app/src/zknox/ecc/zkn_tEdwards.o:(.text.tEdwards_copy)
c0de4662 c0de4662        0     1                 $t.12
c0de4663 c0de4663       26     1                 tEdwards_copy
c0de4688 c0de4688       3e     2         build/flex/obj/app/src/zknox/ecc/zkn_tEdwards.o:(.text.tEdwards_alloc_init)
c0de4688 c0de4688        0     1                 $t.13
c0de4689 c0de4689       3e     1                 tEdwards_alloc_init
c0de46c6 c0de46c6       ca     2         build/flex/obj/app/src/zknox/ecc/zkn_tEdwards.o:(.text.tEdwards_scalarMul_bn)
c0de46c6 c0de46c6        0     1                 $t.15
c0de46c7 c0de46c7       ca     1                 tEdwards_scalarMul_bn
c0de4790 c0de4790       3c     2         build/flex/obj/app/src/zknox/ecc/zkn_tEdwards.o:(.text.tEdwards_scalarMul)
c0de4790 c0de4790        0     1                 $t.16
c0de4791 c0de4791       3c     1                 tEdwards_scalarMul
c0de47cc c0de47cc        6     2         build/flex/obj/app/src/zknox/ecc/zkn_tEdwards.o:(.text.OUTLINED_FUNCTION_0)
c0de47cc c0de47cc        0     1                 $t.17
c0de47cd c0de47cd        6     1                 OUTLINED_FUNCTION_0
c0de47d2 c0de47d2        6     2         build/flex/obj/app/src/zknox/ecc/zkn_tEdwards.o:(.text.OUTLINED_FUNCTION_1)
c0de47d2 c0de47d2        0     1                 $t.18
c0de47d3 c0de47d3        6     1                 OUTLINED_FUNCTION_1
c0de47d8 c0de47d8        8     2         build/flex/obj/app/src/zknox/ecc/zkn_tEdwards.o:(.text.OUTLINED_FUNCTION_2)
c0de47d8 c0de47d8        0     1                 $t.19
c0de47d9 c0de47d9        8     1                 OUTLINED_FUNCTION_2
c0de47e0 c0de47e0        a     2         build/flex/obj/app/src/zknox/ecc/zkn_tEdwards.o:(.text.OUTLINED_FUNCTION_3)
c0de47e0 c0de47e0        0     1                 $t.20
c0de47e1 c0de47e1        a     1                 OUTLINED_FUNCTION_3
c0de47ea c0de47ea        c     2         build/flex/obj/app/src/zknox/ecc/zkn_tEdwards.o:(.text.OUTLINED_FUNCTION_4)
c0de47ea c0de47ea        0     1                 $t.21
c0de47eb c0de47eb        c     1                 OUTLINED_FUNCTION_4
c0de47f6 c0de47f6        6     2         build/flex/obj/app/src/zknox/ecc/zkn_tEdwards.o:(.text.OUTLINED_FUNCTION_5)
c0de47f6 c0de47f6        0     1                 $t.22
c0de47f7 c0de47f7        6     1                 OUTLINED_FUNCTION_5
c0de47fc c0de47fc       80     4         build/flex/obj/app/src/zknox/hash/zkn_poseidon_constants.o:(.text.grain_lfsr_advance)
c0de47fc c0de47fc        0     1                 $t.0
c0de47fd c0de47fd       80     1                 grain_lfsr_advance
c0de4874 c0de4874        0     1                 $d.1
c0de487c c0de487c       4a     2         build/flex/obj/app/src/zknox/hash/zkn_poseidon_constants.o:(.text.next64_graingen)
c0de487c c0de487c        0     1                 $t.2
c0de487d c0de487d       4a     1                 next64_graingen
c0de48c8 c0de48c8       30     4         build/flex/obj/app/src/zknox/hash/zkn_poseidon_constants.o:(.text.init_generator)
c0de48c8 c0de48c8        0     1                 $t.3
c0de48c9 c0de48c9       30     1                 init_generator
c0de48f0 c0de48f0        0     1                 $d.4
c0de48f8 c0de48f8       98     4         build/flex/obj/app/src/zknox/hash/zkn_poseidon_constants.o:(.text.gen_integer)
c0de48f8 c0de48f8        0     1                 $t.5
c0de48f9 c0de48f9       98     1                 gen_integer
c0de4980 c0de4980        0     1                 $d.6
c0de4990 c0de4990        8     2         build/flex/obj/app/src/zknox/hash/zkn_poseidon_constants.o:(.text.rev64)
c0de4990 c0de4990        0     1                 $t.7
c0de4991 c0de4991        8     1                 rev64
c0de4998 c0de4998        6     2         build/flex/obj/app/src/zknox/hash/zkn_poseidon_constants.o:(.text.Poseidon_getNext_RC)
c0de4998 c0de4998        0     1                 $t.9
c0de4999 c0de4999        6     1                 Poseidon_getNext_RC
c0de499e c0de499e       4c     2         build/flex/obj/app/src/zknox/hash/zkn_poseidon_constants.o:(.text.Poseidon_alloc_init)
c0de499e c0de499e        0     1                 $t.10
c0de499f c0de499f       4c     1                 Poseidon_alloc_init
c0de49ea c0de49ea       d6     2         build/flex/obj/sdk/io/src/os_io_default_apdu.o:(.text.os_io_handle_default_apdu)
c0de49ea c0de49ea        0     1                 $t.0
c0de49eb c0de49eb       d6     1                 os_io_handle_default_apdu
c0de4ac0 c0de4ac0        e     2         build/flex/obj/sdk/io/src/os_io_default_apdu.o:(.text.OUTLINED_FUNCTION_0)
c0de4ac0 c0de4ac0        0     1                 $t.1
c0de4ac1 c0de4ac1        e     1                 OUTLINED_FUNCTION_0
c0de4ace c0de4ace       54     2         build/flex/obj/sdk/io/src/os_io_seph_cmd.o:(.text.os_io_seph_cmd_piezo_play_tune)
c0de4ace c0de4ace        0     1                 $t.20
c0de4acf c0de4acf       54     1                 os_io_seph_cmd_piezo_play_tune
c0de4b22 c0de4b22        6     2         build/flex/obj/sdk/io/src/os_io_seph_cmd.o:(.text.OUTLINED_FUNCTION_1)
c0de4b22 c0de4b22        0     1                 $t.31
c0de4b23 c0de4b23        6     1                 OUTLINED_FUNCTION_1
c0de4b28 c0de4b28       98     4         build/flex/obj/sdk/io/src/os_io_seph_ux.o:(.text.io_process_itc_ux_event)
c0de4b28 c0de4b28        0     1                 $t.2
c0de4b29 c0de4b29       98     1                 io_process_itc_ux_event
c0de4bbc c0de4bbc        0     1                 $d.3
c0de4bc0 c0de4bc0       34     4         build/flex/obj/sdk/io_legacy/src/os_io_legacy.o:(.text.io_legacy_apdu_tx)
c0de4bc0 c0de4bc0        0     1                 $t.12
c0de4bc1 c0de4bc1       34     1                 io_legacy_apdu_tx
c0de4be8 c0de4be8        0     1                 $d.13
c0de4bf4 c0de4bf4      258     4         build/flex/obj/sdk/io_legacy/src/os_io_legacy.o:(.text.io_legacy_apdu_rx)
c0de4bf4 c0de4bf4        0     1                 $t.14
c0de4bf5 c0de4bf5      258     1                 io_legacy_apdu_rx
c0de4e2c c0de4e2c        0     1                 $d.15
c0de4e4c c0de4e4c       40     4         build/flex/obj/sdk/io_legacy/src/os_io_legacy.o:(.text.io_seproxyhal_init)
c0de4e4c c0de4e4c        0     1                 $t.16
c0de4e4d c0de4e4d       40     1                 io_seproxyhal_init
c0de4e84 c0de4e84        0     1                 $d.17
c0de4e8c c0de4e8c        c     2         build/flex/obj/sdk/io_legacy/src/os_io_legacy.o:(.text.OUTLINED_FUNCTION_0)
c0de4e8c c0de4e8c        0     1                 $t.21
c0de4e8d c0de4e8d        c     1                 OUTLINED_FUNCTION_0
c0de4e98 c0de4e98       42     2         build/flex/obj/sdk/lib_nbgl/src/nbgl_layout.o:(.text.layoutAddCallbackObj)
c0de4e98 c0de4e98        0     1                 $t.0
c0de4e99 c0de4e99       42     1                 layoutAddCallbackObj
c0de4edc c0de4edc      1d0     4         build/flex/obj/sdk/lib_nbgl/src/nbgl_layout.o:(.text.nbgl_layoutGet)
c0de4edc c0de4edc        0     1                 $t.2
c0de4edd c0de4edd      1d0     1                 nbgl_layoutGet
c0de509c c0de509c        0     1                 $d.3
c0de50ac c0de50ac      2e8     2         build/flex/obj/sdk/lib_nbgl/src/nbgl_layout.o:(.text.touchCallback)
c0de50ac c0de50ac        0     1                 $t.4
c0de50ad c0de50ad      2e8     1                 touchCallback
c0de5394 c0de5394      624     4         build/flex/obj/sdk/lib_nbgl/src/nbgl_layout.o:(.text.nbgl_layoutAddUpFooter)
c0de5394 c0de5394        0     1                 $t.5
c0de5395 c0de5395      624     1                 nbgl_layoutAddUpFooter
c0de57c8 c0de57c8        0     1                 $d.6
c0de57d0 c0de57d0        0     1                 $t.7
c0de59b8 c0de59b8       7e     2         build/flex/obj/sdk/lib_nbgl/src/nbgl_layout.o:(.text.nbgl_layoutAddSwipe)
c0de59b8 c0de59b8        0     1                 $t.8
c0de59b9 c0de59b9       7e     1                 nbgl_layoutAddSwipe
c0de5a36 c0de5a36       36     2         build/flex/obj/sdk/lib_nbgl/src/nbgl_layout.o:(.text.addSwipeInternal)
c0de5a36 c0de5a36        0     1                 $t.9
c0de5a37 c0de5a37       36     1                 addSwipeInternal
c0de5a6c c0de5a6c       78     2         build/flex/obj/sdk/lib_nbgl/src/nbgl_layout.o:(.text.nbgl_layoutAddTopRightButton)
c0de5a6c c0de5a6c        0     1                 $t.10
c0de5a6d c0de5a6d       78     1                 nbgl_layoutAddTopRightButton
c0de5ae4 c0de5ae4      714     2         build/flex/obj/sdk/lib_nbgl/src/nbgl_layout.o:(.text.nbgl_layoutAddExtendedFooter)
c0de5ae4 c0de5ae4        0     1                 $t.12
c0de5ae5 c0de5ae5      714     1                 nbgl_layoutAddExtendedFooter
c0de61f8 c0de61f8       3e     2         build/flex/obj/sdk/lib_nbgl/src/nbgl_layout.o:(.text.nbgl_layoutAddBottomButton)
c0de61f8 c0de61f8        0     1                 $t.13
c0de61f9 c0de61f9       3e     1                 nbgl_layoutAddBottomButton
c0de6236 c0de6236       4a     2         build/flex/obj/sdk/lib_nbgl/src/nbgl_layout.o:(.text.nbgl_layoutAddTouchableBar)
c0de6236 c0de6236        0     1                 $t.14
c0de6237 c0de6237       4a     1                 nbgl_layoutAddTouchableBar
c0de6280 c0de6280      3b8     4         build/flex/obj/sdk/lib_nbgl/src/nbgl_layout.o:(.text.addListItem)
c0de6280 c0de6280        0     1                 $t.15
c0de6281 c0de6281      3b8     1                 addListItem
c0de6634 c0de6634        0     1                 $d.16
c0de6638 c0de6638       44     2         build/flex/obj/sdk/lib_nbgl/src/nbgl_layout.o:(.text.nbgl_layoutAddSwitch)
c0de6638 c0de6638        0     1                 $t.17
c0de6639 c0de6639       44     1                 nbgl_layoutAddSwitch
c0de667c c0de667c       10     2         build/flex/obj/sdk/lib_nbgl/src/nbgl_layout.o:(.text.nbgl_layoutAddText)
c0de667c c0de667c        0     1                 $t.18
c0de667d c0de667d       10     1                 nbgl_layoutAddText
c0de668c c0de668c      280     4         build/flex/obj/sdk/lib_nbgl/src/nbgl_layout.o:(.text.addText)
c0de668c c0de668c        0     1                 $t.19
c0de668d c0de668d      280     1                 addText
c0de6904 c0de6904        0     1                 $d.20
c0de690c c0de690c       10     2         build/flex/obj/sdk/lib_nbgl/src/nbgl_layout.o:(.text.nbgl_layoutAddTextWithAlias)
c0de690c c0de690c        0     1                 $t.21
c0de690d c0de690d       10     1                 nbgl_layoutAddTextWithAlias
c0de691c c0de691c      180     4         build/flex/obj/sdk/lib_nbgl/src/nbgl_layout.o:(.text.nbgl_layoutAddTextContent)
c0de691c c0de691c        0     1                 $t.24
c0de691d c0de691d      180     1                 nbgl_layoutAddTextContent
c0de6a90 c0de6a90        0     1                 $d.25
c0de6a9c c0de6a9c      224     4         build/flex/obj/sdk/lib_nbgl/src/nbgl_layout.o:(.text.nbgl_layoutAddRadioChoice)
c0de6a9c c0de6a9c        0     1                 $t.26
c0de6a9d c0de6a9d      224     1                 nbgl_layoutAddRadioChoice
c0de6cb8 c0de6cb8        0     1                 $d.27
c0de6cc0 c0de6cc0       28     2         build/flex/obj/sdk/lib_nbgl/src/nbgl_layout.o:(.text.createHorizontalLine)
c0de6cc0 c0de6cc0        0     1                 $t.28
c0de6cc1 c0de6cc1       28     1                 createHorizontalLine
c0de6ce8 c0de6ce8       7a     2         build/flex/obj/sdk/lib_nbgl/src/nbgl_layout.o:(.text.nbgl_layoutAddCenteredInfo)
c0de6ce8 c0de6ce8        0     1                 $t.29
c0de6ce9 c0de6ce9       7a     1                 nbgl_layoutAddCenteredInfo
c0de6d64 c0de6d64      3e0     4         build/flex/obj/sdk/lib_nbgl/src/nbgl_layout.o:(.text.addContentCenter)
c0de6d64 c0de6d64        0     1                 $t.30
c0de6d65 c0de6d65      3e0     1                 addContentCenter
c0de7140 c0de7140        0     1                 $d.31
c0de7144 c0de7144       12     2         build/flex/obj/sdk/lib_nbgl/src/nbgl_layout.o:(.text.nbgl_layoutAddContentCenter)
c0de7144 c0de7144        0     1                 $t.32
c0de7145 c0de7145       12     1                 nbgl_layoutAddContentCenter
c0de7156 c0de7156      2e6     2         build/flex/obj/sdk/lib_nbgl/src/nbgl_layout.o:(.text.nbgl_layoutAddQRCode)
c0de7156 c0de7156        0     1                 $t.35
c0de7157 c0de7157      2e6     1                 nbgl_layoutAddQRCode
c0de743c c0de743c       2c     2         build/flex/obj/sdk/lib_nbgl/src/nbgl_layout.o:(.text.nbgl_layoutAddChoiceButtons)
c0de743c c0de743c        0     1                 $t.36
c0de743d c0de743d       2c     1                 nbgl_layoutAddChoiceButtons
c0de7468 c0de7468       26     2         build/flex/obj/sdk/lib_nbgl/src/nbgl_layout.o:(.text.nbgl_layoutAddHorizontalButtons)
c0de7468 c0de7468        0     1                 $t.37
c0de7469 c0de7469       26     1                 nbgl_layoutAddHorizontalButtons
c0de7490 c0de7490      328     4         build/flex/obj/sdk/lib_nbgl/src/nbgl_layout.o:(.text.nbgl_layoutAddTagValueList)
c0de7490 c0de7490        0     1                 $t.38
c0de7491 c0de7491      328     1                 nbgl_layoutAddTagValueList
c0de77b0 c0de77b0        0     1                 $d.39
c0de77b8 c0de77b8       24     2         build/flex/obj/sdk/lib_nbgl/src/nbgl_layout.o:(.text.nbgl_layoutAddSeparationLine)
c0de77b8 c0de77b8        0     1                 $t.42
c0de77b9 c0de77b9       24     1                 nbgl_layoutAddSeparationLine
c0de77dc c0de77dc      1be     2         build/flex/obj/sdk/lib_nbgl/src/nbgl_layout.o:(.text.nbgl_layoutAddButton)
c0de77dc c0de77dc        0     1                 $t.43
c0de77dd c0de77dd      1be     1                 nbgl_layoutAddButton
c0de799a c0de799a       24     2         build/flex/obj/sdk/lib_nbgl/src/nbgl_layout.o:(.text.nbgl_layoutAddLongPressButton)
c0de799a c0de799a        0     1                 $t.44
c0de799b c0de799b       24     1                 nbgl_layoutAddLongPressButton
c0de79be c0de79be       24     2         build/flex/obj/sdk/lib_nbgl/src/nbgl_layout.o:(.text.nbgl_layoutAddFooter)
c0de79be c0de79be        0     1                 $t.45
c0de79bf c0de79bf       24     1                 nbgl_layoutAddFooter
c0de79e2 c0de79e2       28     2         build/flex/obj/sdk/lib_nbgl/src/nbgl_layout.o:(.text.nbgl_layoutAddSplitFooter)
c0de79e2 c0de79e2        0     1                 $t.46
c0de79e3 c0de79e3       28     1                 nbgl_layoutAddSplitFooter
c0de7a0c c0de7a0c      488     4         build/flex/obj/sdk/lib_nbgl/src/nbgl_layout.o:(.text.nbgl_layoutAddHeader)
c0de7a0c c0de7a0c        0     1                 $t.47
c0de7a0d c0de7a0d      488     1                 nbgl_layoutAddHeader
c0de7e90 c0de7e90        0     1                 $d.48
c0de7e94 c0de7e94       34     2         build/flex/obj/sdk/lib_nbgl/src/nbgl_layout.o:(.text.nbgl_layoutAddProgressIndicator)
c0de7e94 c0de7e94        0     1                 $t.49
c0de7e95 c0de7e95       34     1                 nbgl_layoutAddProgressIndicator
c0de7ec8 c0de7ec8      254     4         build/flex/obj/sdk/lib_nbgl/src/nbgl_layout.o:(.text.nbgl_layoutAddSpinner)
c0de7ec8 c0de7ec8        0     1                 $t.50
c0de7ec9 c0de7ec9      254     1                 nbgl_layoutAddSpinner
c0de8114 c0de8114        0     1                 $d.51
c0de811c c0de811c       6c     4         build/flex/obj/sdk/lib_nbgl/src/nbgl_layout.o:(.text.spinnerTickerCallback)
c0de811c c0de811c        0     1                 $t.52
c0de811d c0de811d       6c     1                 spinnerTickerCallback
c0de8184 c0de8184        0     1                 $d.53
c0de8188 c0de8188      148     2         build/flex/obj/sdk/lib_nbgl/src/nbgl_layout.o:(.text.nbgl_layoutUpdateSpinner)
c0de8188 c0de8188        0     1                 $t.54
c0de8189 c0de8189      148     1                 nbgl_layoutUpdateSpinner
c0de82d0 c0de82d0       5a     2         build/flex/obj/sdk/lib_nbgl/src/nbgl_layout.o:(.text.nbgl_layoutDraw)
c0de82d0 c0de82d0        0     1                 $t.55
c0de82d1 c0de82d1       5a     1                 nbgl_layoutDraw
c0de832c c0de832c       60     4         build/flex/obj/sdk/lib_nbgl/src/nbgl_layout.o:(.text.nbgl_layoutRelease)
c0de832c c0de832c        0     1                 $t.56
c0de832d c0de832d       60     1                 nbgl_layoutRelease
c0de8388 c0de8388        0     1                 $d.57
c0de838c c0de838c       4c     4         build/flex/obj/sdk/lib_nbgl/src/nbgl_layout.o:(.text.getLayoutAndLayoutObj)
c0de838c c0de838c        0     1                 $t.58
c0de838d c0de838d       4c     1                 getLayoutAndLayoutObj
c0de83d4 c0de83d4        0     1                 $d.59
c0de83d8 c0de83d8      104     4         build/flex/obj/sdk/lib_nbgl/src/nbgl_layout.o:(.text.animTickerCallback)
c0de83d8 c0de83d8        0     1                 $t.60
c0de83d9 c0de83d9      104     1                 animTickerCallback
c0de84d8 c0de84d8        0     1                 $d.61
c0de84dc c0de84dc        8     2         build/flex/obj/sdk/lib_nbgl/src/nbgl_layout.o:(.text.OUTLINED_FUNCTION_0)
c0de84dc c0de84dc        0     1                 $t.62
c0de84dd c0de84dd        8     1                 OUTLINED_FUNCTION_0
c0de84e4 c0de84e4        c     2         build/flex/obj/sdk/lib_nbgl/src/nbgl_layout.o:(.text.OUTLINED_FUNCTION_1)
c0de84e4 c0de84e4        0     1                 $t.63
c0de84e5 c0de84e5        c     1                 OUTLINED_FUNCTION_1
c0de84f0 c0de84f0       28     2         build/flex/obj/sdk/lib_nbgl/src/nbgl_layout.o:(.text.OUTLINED_FUNCTION_2)
c0de84f0 c0de84f0        0     1                 $t.64
c0de84f1 c0de84f1       28     1                 OUTLINED_FUNCTION_2
c0de8518 c0de8518       26     2         build/flex/obj/sdk/lib_nbgl/src/nbgl_layout.o:(.text.OUTLINED_FUNCTION_3)
c0de8518 c0de8518        0     1                 $t.65
c0de8519 c0de8519       26     1                 OUTLINED_FUNCTION_3
c0de853e c0de853e       20     2         build/flex/obj/sdk/lib_nbgl/src/nbgl_layout.o:(.text.OUTLINED_FUNCTION_4)
c0de853e c0de853e        0     1                 $t.66
c0de853f c0de853f       20     1                 OUTLINED_FUNCTION_4
c0de855e c0de855e       1a     2         build/flex/obj/sdk/lib_nbgl/src/nbgl_layout.o:(.text.OUTLINED_FUNCTION_5)
c0de855e c0de855e        0     1                 $t.67
c0de855f c0de855f       1a     1                 OUTLINED_FUNCTION_5
c0de8578 c0de8578        8     2         build/flex/obj/sdk/lib_nbgl/src/nbgl_layout.o:(.text.OUTLINED_FUNCTION_6)
c0de8578 c0de8578        0     1                 $t.68
c0de8579 c0de8579        8     1                 OUTLINED_FUNCTION_6
c0de8580 c0de8580       34     2         build/flex/obj/sdk/lib_nbgl/src/nbgl_layout.o:(.text.OUTLINED_FUNCTION_7)
c0de8580 c0de8580        0     1                 $t.69
c0de8581 c0de8581       34     1                 OUTLINED_FUNCTION_7
c0de85b4 c0de85b4       1c     2         build/flex/obj/sdk/lib_nbgl/src/nbgl_layout.o:(.text.OUTLINED_FUNCTION_8)
c0de85b4 c0de85b4        0     1                 $t.70
c0de85b5 c0de85b5       1c     1                 OUTLINED_FUNCTION_8
c0de85d0 c0de85d0       32     2         build/flex/obj/sdk/lib_nbgl/src/nbgl_layout.o:(.text.OUTLINED_FUNCTION_9)
c0de85d0 c0de85d0        0     1                 $t.71
c0de85d1 c0de85d1       32     1                 OUTLINED_FUNCTION_9
c0de8602 c0de8602       1c     2         build/flex/obj/sdk/lib_nbgl/src/nbgl_layout.o:(.text.OUTLINED_FUNCTION_10)
c0de8602 c0de8602        0     1                 $t.72
c0de8603 c0de8603       1c     1                 OUTLINED_FUNCTION_10
c0de861e c0de861e       14     2         build/flex/obj/sdk/lib_nbgl/src/nbgl_layout.o:(.text.OUTLINED_FUNCTION_11)
c0de861e c0de861e        0     1                 $t.73
c0de861f c0de861f       14     1                 OUTLINED_FUNCTION_11
c0de8632 c0de8632       30     2         build/flex/obj/sdk/lib_nbgl/src/nbgl_layout.o:(.text.OUTLINED_FUNCTION_12)
c0de8632 c0de8632        0     1                 $t.74
c0de8633 c0de8633       30     1                 OUTLINED_FUNCTION_12
c0de8662 c0de8662        e     2         build/flex/obj/sdk/lib_nbgl/src/nbgl_layout.o:(.text.OUTLINED_FUNCTION_13)
c0de8662 c0de8662        0     1                 $t.75
c0de8663 c0de8663        e     1                 OUTLINED_FUNCTION_13
c0de8670 c0de8670       10     2         build/flex/obj/sdk/lib_nbgl/src/nbgl_layout.o:(.text.OUTLINED_FUNCTION_14)
c0de8670 c0de8670        0     1                 $t.76
c0de8671 c0de8671       10     1                 OUTLINED_FUNCTION_14
c0de8680 c0de8680       2e     2         build/flex/obj/sdk/lib_nbgl/src/nbgl_layout.o:(.text.OUTLINED_FUNCTION_15)
c0de8680 c0de8680        0     1                 $t.77
c0de8681 c0de8681       2e     1                 OUTLINED_FUNCTION_15
c0de86ae c0de86ae        8     2         build/flex/obj/sdk/lib_nbgl/src/nbgl_layout.o:(.text.OUTLINED_FUNCTION_16)
c0de86ae c0de86ae        0     1                 $t.78
c0de86af c0de86af        8     1                 OUTLINED_FUNCTION_16
c0de86b6 c0de86b6        8     2         build/flex/obj/sdk/lib_nbgl/src/nbgl_layout.o:(.text.OUTLINED_FUNCTION_17)
c0de86b6 c0de86b6        0     1                 $t.79
c0de86b7 c0de86b7        8     1                 OUTLINED_FUNCTION_17
c0de86be c0de86be       28     2         build/flex/obj/sdk/lib_nbgl/src/nbgl_layout.o:(.text.OUTLINED_FUNCTION_18)
c0de86be c0de86be        0     1                 $t.80
c0de86bf c0de86bf       28     1                 OUTLINED_FUNCTION_18
c0de86e6 c0de86e6       28     2         build/flex/obj/sdk/lib_nbgl/src/nbgl_layout.o:(.text.OUTLINED_FUNCTION_19)
c0de86e6 c0de86e6        0     1                 $t.81
c0de86e7 c0de86e7       28     1                 OUTLINED_FUNCTION_19
c0de870e c0de870e        6     2         build/flex/obj/sdk/lib_nbgl/src/nbgl_layout.o:(.text.OUTLINED_FUNCTION_20)
c0de870e c0de870e        0     1                 $t.82
c0de870f c0de870f        6     1                 OUTLINED_FUNCTION_20
c0de8714 c0de8714        8     2         build/flex/obj/sdk/lib_nbgl/src/nbgl_layout.o:(.text.OUTLINED_FUNCTION_21)
c0de8714 c0de8714        0     1                 $t.83
c0de8715 c0de8715        8     1                 OUTLINED_FUNCTION_21
c0de871c c0de871c       24     2         build/flex/obj/sdk/lib_nbgl/src/nbgl_layout.o:(.text.OUTLINED_FUNCTION_22)
c0de871c c0de871c        0     1                 $t.84
c0de871d c0de871d       24     1                 OUTLINED_FUNCTION_22
c0de8740 c0de8740        6     2         build/flex/obj/sdk/lib_nbgl/src/nbgl_layout.o:(.text.OUTLINED_FUNCTION_23)
c0de8740 c0de8740        0     1                 $t.85
c0de8741 c0de8741        6     1                 OUTLINED_FUNCTION_23
c0de8746 c0de8746       20     2         build/flex/obj/sdk/lib_nbgl/src/nbgl_layout.o:(.text.OUTLINED_FUNCTION_24)
c0de8746 c0de8746        0     1                 $t.86
c0de8747 c0de8747       20     1                 OUTLINED_FUNCTION_24
c0de8766 c0de8766        a     2         build/flex/obj/sdk/lib_nbgl/src/nbgl_layout.o:(.text.OUTLINED_FUNCTION_25)
c0de8766 c0de8766        0     1                 $t.87
c0de8767 c0de8767        a     1                 OUTLINED_FUNCTION_25
c0de8770 c0de8770       20     2         build/flex/obj/sdk/lib_nbgl/src/nbgl_layout.o:(.text.OUTLINED_FUNCTION_26)
c0de8770 c0de8770        0     1                 $t.88
c0de8771 c0de8771       20     1                 OUTLINED_FUNCTION_26
c0de8790 c0de8790       20     2         build/flex/obj/sdk/lib_nbgl/src/nbgl_layout.o:(.text.OUTLINED_FUNCTION_27)
c0de8790 c0de8790        0     1                 $t.89
c0de8791 c0de8791       20     1                 OUTLINED_FUNCTION_27
c0de87b0 c0de87b0       12     2         build/flex/obj/sdk/lib_nbgl/src/nbgl_layout.o:(.text.OUTLINED_FUNCTION_28)
c0de87b0 c0de87b0        0     1                 $t.90
c0de87b1 c0de87b1       12     1                 OUTLINED_FUNCTION_28
c0de87c2 c0de87c2       12     2         build/flex/obj/sdk/lib_nbgl/src/nbgl_layout.o:(.text.OUTLINED_FUNCTION_29)
c0de87c2 c0de87c2        0     1                 $t.91
c0de87c3 c0de87c3       12     1                 OUTLINED_FUNCTION_29
c0de87d4 c0de87d4       1e     2         build/flex/obj/sdk/lib_nbgl/src/nbgl_layout.o:(.text.OUTLINED_FUNCTION_30)
c0de87d4 c0de87d4        0     1                 $t.92
c0de87d5 c0de87d5       1e     1                 OUTLINED_FUNCTION_30
c0de87f2 c0de87f2       12     2         build/flex/obj/sdk/lib_nbgl/src/nbgl_layout.o:(.text.OUTLINED_FUNCTION_31)
c0de87f2 c0de87f2        0     1                 $t.93
c0de87f3 c0de87f3       12     1                 OUTLINED_FUNCTION_31
c0de8804 c0de8804       1c     2         build/flex/obj/sdk/lib_nbgl/src/nbgl_layout.o:(.text.OUTLINED_FUNCTION_32)
c0de8804 c0de8804        0     1                 $t.94
c0de8805 c0de8805       1c     1                 OUTLINED_FUNCTION_32
c0de8820 c0de8820       1c     2         build/flex/obj/sdk/lib_nbgl/src/nbgl_layout.o:(.text.OUTLINED_FUNCTION_33)
c0de8820 c0de8820        0     1                 $t.95
c0de8821 c0de8821       1c     1                 OUTLINED_FUNCTION_33
c0de883c c0de883c       18     2         build/flex/obj/sdk/lib_nbgl/src/nbgl_layout.o:(.text.OUTLINED_FUNCTION_34)
c0de883c c0de883c        0     1                 $t.96
c0de883d c0de883d       18     1                 OUTLINED_FUNCTION_34
c0de8854 c0de8854        6     2         build/flex/obj/sdk/lib_nbgl/src/nbgl_layout.o:(.text.OUTLINED_FUNCTION_35)
c0de8854 c0de8854        0     1                 $t.97
c0de8855 c0de8855        6     1                 OUTLINED_FUNCTION_35
c0de885a c0de885a       1c     2         build/flex/obj/sdk/lib_nbgl/src/nbgl_layout.o:(.text.OUTLINED_FUNCTION_36)
c0de885a c0de885a        0     1                 $t.98
c0de885b c0de885b       1c     1                 OUTLINED_FUNCTION_36
c0de8876 c0de8876       1c     2         build/flex/obj/sdk/lib_nbgl/src/nbgl_layout.o:(.text.OUTLINED_FUNCTION_37)
c0de8876 c0de8876        0     1                 $t.99
c0de8877 c0de8877       1c     1                 OUTLINED_FUNCTION_37
c0de8892 c0de8892       1c     2         build/flex/obj/sdk/lib_nbgl/src/nbgl_layout.o:(.text.OUTLINED_FUNCTION_38)
c0de8892 c0de8892        0     1                 $t.100
c0de8893 c0de8893       1c     1                 OUTLINED_FUNCTION_38
c0de88ae c0de88ae       16     2         build/flex/obj/sdk/lib_nbgl/src/nbgl_layout.o:(.text.OUTLINED_FUNCTION_39)
c0de88ae c0de88ae        0     1                 $t.101
c0de88af c0de88af       16     1                 OUTLINED_FUNCTION_39
c0de88c4 c0de88c4       1a     2         build/flex/obj/sdk/lib_nbgl/src/nbgl_layout.o:(.text.OUTLINED_FUNCTION_40)
c0de88c4 c0de88c4        0     1                 $t.102
c0de88c5 c0de88c5       1a     1                 OUTLINED_FUNCTION_40
c0de88de c0de88de       10     2         build/flex/obj/sdk/lib_nbgl/src/nbgl_layout.o:(.text.OUTLINED_FUNCTION_41)
c0de88de c0de88de        0     1                 $t.103
c0de88df c0de88df       10     1                 OUTLINED_FUNCTION_41
c0de88ee c0de88ee       10     2         build/flex/obj/sdk/lib_nbgl/src/nbgl_layout.o:(.text.OUTLINED_FUNCTION_42)
c0de88ee c0de88ee        0     1                 $t.104
c0de88ef c0de88ef       10     1                 OUTLINED_FUNCTION_42
c0de88fe c0de88fe        6     2         build/flex/obj/sdk/lib_nbgl/src/nbgl_layout.o:(.text.OUTLINED_FUNCTION_43)
c0de88fe c0de88fe        0     1                 $t.105
c0de88ff c0de88ff        6     1                 OUTLINED_FUNCTION_43
c0de8904 c0de8904       18     2         build/flex/obj/sdk/lib_nbgl/src/nbgl_layout.o:(.text.OUTLINED_FUNCTION_44)
c0de8904 c0de8904        0     1                 $t.106
c0de8905 c0de8905       18     1                 OUTLINED_FUNCTION_44
c0de891c c0de891c        e     2         build/flex/obj/sdk/lib_nbgl/src/nbgl_layout.o:(.text.OUTLINED_FUNCTION_45)
c0de891c c0de891c        0     1                 $t.107
c0de891d c0de891d        e     1                 OUTLINED_FUNCTION_45
c0de892a c0de892a        e     2         build/flex/obj/sdk/lib_nbgl/src/nbgl_layout.o:(.text.OUTLINED_FUNCTION_46)
c0de892a c0de892a        0     1                 $t.108
c0de892b c0de892b        e     1                 OUTLINED_FUNCTION_46
c0de8938 c0de8938        a     2         build/flex/obj/sdk/lib_nbgl/src/nbgl_layout.o:(.text.OUTLINED_FUNCTION_47)
c0de8938 c0de8938        0     1                 $t.109
c0de8939 c0de8939        a     1                 OUTLINED_FUNCTION_47
c0de8942 c0de8942        e     2         build/flex/obj/sdk/lib_nbgl/src/nbgl_layout.o:(.text.OUTLINED_FUNCTION_48)
c0de8942 c0de8942        0     1                 $t.110
c0de8943 c0de8943        e     1                 OUTLINED_FUNCTION_48
c0de8950 c0de8950        6     2         build/flex/obj/sdk/lib_nbgl/src/nbgl_layout.o:(.text.OUTLINED_FUNCTION_49)
c0de8950 c0de8950        0     1                 $t.111
c0de8951 c0de8951        6     1                 OUTLINED_FUNCTION_49
c0de8956 c0de8956       14     2         build/flex/obj/sdk/lib_nbgl/src/nbgl_layout.o:(.text.OUTLINED_FUNCTION_50)
c0de8956 c0de8956        0     1                 $t.112
c0de8957 c0de8957       14     1                 OUTLINED_FUNCTION_50
c0de896a c0de896a        8     2         build/flex/obj/sdk/lib_nbgl/src/nbgl_layout.o:(.text.OUTLINED_FUNCTION_51)
c0de896a c0de896a        0     1                 $t.113
c0de896b c0de896b        8     1                 OUTLINED_FUNCTION_51
c0de8972 c0de8972       14     2         build/flex/obj/sdk/lib_nbgl/src/nbgl_layout.o:(.text.OUTLINED_FUNCTION_52)
c0de8972 c0de8972        0     1                 $t.114
c0de8973 c0de8973       14     1                 OUTLINED_FUNCTION_52
c0de8986 c0de8986       14     2         build/flex/obj/sdk/lib_nbgl/src/nbgl_layout.o:(.text.OUTLINED_FUNCTION_53)
c0de8986 c0de8986        0     1                 $t.115
c0de8987 c0de8987       14     1                 OUTLINED_FUNCTION_53
c0de899a c0de899a       10     2         build/flex/obj/sdk/lib_nbgl/src/nbgl_layout.o:(.text.OUTLINED_FUNCTION_54)
c0de899a c0de899a        0     1                 $t.116
c0de899b c0de899b       10     1                 OUTLINED_FUNCTION_54
c0de89aa c0de89aa        a     2         build/flex/obj/sdk/lib_nbgl/src/nbgl_layout.o:(.text.OUTLINED_FUNCTION_55)
c0de89aa c0de89aa        0     1                 $t.117
c0de89ab c0de89ab        a     1                 OUTLINED_FUNCTION_55
c0de89b4 c0de89b4       12     2         build/flex/obj/sdk/lib_nbgl/src/nbgl_layout.o:(.text.OUTLINED_FUNCTION_56)
c0de89b4 c0de89b4        0     1                 $t.118
c0de89b5 c0de89b5       12     1                 OUTLINED_FUNCTION_56
c0de89c6 c0de89c6       12     2         build/flex/obj/sdk/lib_nbgl/src/nbgl_layout.o:(.text.OUTLINED_FUNCTION_57)
c0de89c6 c0de89c6        0     1                 $t.119
c0de89c7 c0de89c7       12     1                 OUTLINED_FUNCTION_57
c0de89d8 c0de89d8        a     2         build/flex/obj/sdk/lib_nbgl/src/nbgl_layout.o:(.text.OUTLINED_FUNCTION_58)
c0de89d8 c0de89d8        0     1                 $t.120
c0de89d9 c0de89d9        a     1                 OUTLINED_FUNCTION_58
c0de89e2 c0de89e2        c     2         build/flex/obj/sdk/lib_nbgl/src/nbgl_layout.o:(.text.OUTLINED_FUNCTION_59)
c0de89e2 c0de89e2        0     1                 $t.121
c0de89e3 c0de89e3        c     1                 OUTLINED_FUNCTION_59
c0de89ee c0de89ee        a     2         build/flex/obj/sdk/lib_nbgl/src/nbgl_layout.o:(.text.OUTLINED_FUNCTION_60)
c0de89ee c0de89ee        0     1                 $t.122
c0de89ef c0de89ef        a     1                 OUTLINED_FUNCTION_60
c0de89f8 c0de89f8        c     2         build/flex/obj/sdk/lib_nbgl/src/nbgl_layout.o:(.text.OUTLINED_FUNCTION_61)
c0de89f8 c0de89f8        0     1                 $t.123
c0de89f9 c0de89f9        c     1                 OUTLINED_FUNCTION_61
c0de8a04 c0de8a04        8     2         build/flex/obj/sdk/lib_nbgl/src/nbgl_layout.o:(.text.OUTLINED_FUNCTION_62)
c0de8a04 c0de8a04        0     1                 $t.124
c0de8a05 c0de8a05        8     1                 OUTLINED_FUNCTION_62
c0de8a0c c0de8a0c        8     2         build/flex/obj/sdk/lib_nbgl/src/nbgl_layout.o:(.text.OUTLINED_FUNCTION_63)
c0de8a0c c0de8a0c        0     1                 $t.125
c0de8a0d c0de8a0d        8     1                 OUTLINED_FUNCTION_63
c0de8a14 c0de8a14        c     2         build/flex/obj/sdk/lib_nbgl/src/nbgl_layout.o:(.text.OUTLINED_FUNCTION_64)
c0de8a14 c0de8a14        0     1                 $t.126
c0de8a15 c0de8a15        c     1                 OUTLINED_FUNCTION_64
c0de8a20 c0de8a20       10     2         build/flex/obj/sdk/lib_nbgl/src/nbgl_layout.o:(.text.OUTLINED_FUNCTION_65)
c0de8a20 c0de8a20        0     1                 $t.127
c0de8a21 c0de8a21       10     1                 OUTLINED_FUNCTION_65
c0de8a30 c0de8a30       10     2         build/flex/obj/sdk/lib_nbgl/src/nbgl_layout.o:(.text.OUTLINED_FUNCTION_66)
c0de8a30 c0de8a30        0     1                 $t.128
c0de8a31 c0de8a31       10     1                 OUTLINED_FUNCTION_66
c0de8a40 c0de8a40        a     2         build/flex/obj/sdk/lib_nbgl/src/nbgl_layout.o:(.text.OUTLINED_FUNCTION_67)
c0de8a40 c0de8a40        0     1                 $t.129
c0de8a41 c0de8a41        a     1                 OUTLINED_FUNCTION_67
c0de8a4a c0de8a4a        6     2         build/flex/obj/sdk/lib_nbgl/src/nbgl_layout.o:(.text.OUTLINED_FUNCTION_68)
c0de8a4a c0de8a4a        0     1                 $t.130
c0de8a4b c0de8a4b        6     1                 OUTLINED_FUNCTION_68
c0de8a50 c0de8a50        c     2         build/flex/obj/sdk/lib_nbgl/src/nbgl_layout.o:(.text.OUTLINED_FUNCTION_69)
c0de8a50 c0de8a50        0     1                 $t.131
c0de8a51 c0de8a51        c     1                 OUTLINED_FUNCTION_69
c0de8a5c c0de8a5c        e     2         build/flex/obj/sdk/lib_nbgl/src/nbgl_layout.o:(.text.OUTLINED_FUNCTION_70)
c0de8a5c c0de8a5c        0     1                 $t.132
c0de8a5d c0de8a5d        e     1                 OUTLINED_FUNCTION_70
c0de8a6a c0de8a6a        e     2         build/flex/obj/sdk/lib_nbgl/src/nbgl_layout.o:(.text.OUTLINED_FUNCTION_71)
c0de8a6a c0de8a6a        0     1                 $t.133
c0de8a6b c0de8a6b        e     1                 OUTLINED_FUNCTION_71
c0de8a78 c0de8a78        e     2         build/flex/obj/sdk/lib_nbgl/src/nbgl_layout.o:(.text.OUTLINED_FUNCTION_72)
c0de8a78 c0de8a78        0     1                 $t.134
c0de8a79 c0de8a79        e     1                 OUTLINED_FUNCTION_72
c0de8a86 c0de8a86        e     2         build/flex/obj/sdk/lib_nbgl/src/nbgl_layout.o:(.text.OUTLINED_FUNCTION_73)
c0de8a86 c0de8a86        0     1                 $t.135
c0de8a87 c0de8a87        e     1                 OUTLINED_FUNCTION_73
c0de8a94 c0de8a94        6     2         build/flex/obj/sdk/lib_nbgl/src/nbgl_layout.o:(.text.OUTLINED_FUNCTION_74)
c0de8a94 c0de8a94        0     1                 $t.136
c0de8a95 c0de8a95        6     1                 OUTLINED_FUNCTION_74
c0de8a9a c0de8a9a        e     2         build/flex/obj/sdk/lib_nbgl/src/nbgl_layout.o:(.text.OUTLINED_FUNCTION_75)
c0de8a9a c0de8a9a        0     1                 $t.137
c0de8a9b c0de8a9b        e     1                 OUTLINED_FUNCTION_75
c0de8aa8 c0de8aa8        e     2         build/flex/obj/sdk/lib_nbgl/src/nbgl_layout.o:(.text.OUTLINED_FUNCTION_76)
c0de8aa8 c0de8aa8        0     1                 $t.138
c0de8aa9 c0de8aa9        e     1                 OUTLINED_FUNCTION_76
c0de8ab6 c0de8ab6        6     2         build/flex/obj/sdk/lib_nbgl/src/nbgl_layout.o:(.text.OUTLINED_FUNCTION_78)
c0de8ab6 c0de8ab6        0     1                 $t.140
c0de8ab7 c0de8ab7        6     1                 OUTLINED_FUNCTION_78
c0de8abc c0de8abc        8     2         build/flex/obj/sdk/lib_nbgl/src/nbgl_layout.o:(.text.OUTLINED_FUNCTION_79)
c0de8abc c0de8abc        0     1                 $t.141
c0de8abd c0de8abd        8     1                 OUTLINED_FUNCTION_79
c0de8ac4 c0de8ac4        a     2         build/flex/obj/sdk/lib_nbgl/src/nbgl_layout.o:(.text.OUTLINED_FUNCTION_80)
c0de8ac4 c0de8ac4        0     1                 $t.142
c0de8ac5 c0de8ac5        a     1                 OUTLINED_FUNCTION_80
c0de8ace c0de8ace        e     2         build/flex/obj/sdk/lib_nbgl/src/nbgl_layout.o:(.text.OUTLINED_FUNCTION_81)
c0de8ace c0de8ace        0     1                 $t.143
c0de8acf c0de8acf        e     1                 OUTLINED_FUNCTION_81
c0de8adc c0de8adc       a8     2         build/flex/obj/sdk/lib_nbgl/src/nbgl_layout_navigation.o:(.text.layoutNavigationCallback)
c0de8adc c0de8adc        0     1                 $t.0
c0de8add c0de8add       a8     1                 layoutNavigationCallback
c0de8b84 c0de8b84       40     2         build/flex/obj/sdk/lib_nbgl/src/nbgl_layout_navigation.o:(.text.configButtons)
c0de8b84 c0de8b84        0     1                 $t.1
c0de8b85 c0de8b85       40     1                 configButtons
c0de8bc4 c0de8bc4      204     4         build/flex/obj/sdk/lib_nbgl/src/nbgl_layout_navigation.o:(.text.layoutNavigationPopulate)
c0de8bc4 c0de8bc4        0     1                 $t.2
c0de8bc5 c0de8bc5      204     1                 layoutNavigationPopulate
c0de8db4 c0de8db4        0     1                 $d.3
c0de8dc8 c0de8dc8       1a     2         build/flex/obj/sdk/lib_nbgl/src/nbgl_layout_navigation.o:(.text.OUTLINED_FUNCTION_0)
c0de8dc8 c0de8dc8        0     1                 $t.4
c0de8dc9 c0de8dc9       1a     1                 OUTLINED_FUNCTION_0
c0de8de2 c0de8de2       12     2         build/flex/obj/sdk/lib_nbgl/src/nbgl_layout_navigation.o:(.text.OUTLINED_FUNCTION_1)
c0de8de2 c0de8de2        0     1                 $t.5
c0de8de3 c0de8de3       12     1                 OUTLINED_FUNCTION_1
c0de8df4 c0de8df4       94     4         build/flex/obj/sdk/lib_nbgl/src/nbgl_page.o:(.text.nbgl_pageDrawLedgerInfo)
c0de8df4 c0de8df4        0     1                 $t.0
c0de8df5 c0de8df5       94     1                 nbgl_pageDrawLedgerInfo
c0de8e80 c0de8e80        0     1                 $d.1
c0de8e88 c0de8e88       14     2         build/flex/obj/sdk/lib_nbgl/src/nbgl_page.o:(.text.addEmptyHeader)
c0de8e88 c0de8e88        0     1                 $t.2
c0de8e89 c0de8e89       14     1                 addEmptyHeader
c0de8e9c c0de8e9c      1e0     4         build/flex/obj/sdk/lib_nbgl/src/nbgl_page.o:(.text.nbgl_pageDrawInfo)
c0de8e9c c0de8e9c        0     1                 $t.4
c0de8e9d c0de8e9d      1e0     1                 nbgl_pageDrawInfo
c0de905c c0de905c        0     1                 $d.5
c0de907c c0de907c       74     4         build/flex/obj/sdk/lib_nbgl/src/nbgl_page.o:(.text.nbgl_pageDrawConfirmation)
c0de907c c0de907c        0     1                 $t.6
c0de907d c0de907d       74     1                 nbgl_pageDrawConfirmation
c0de90ec c0de90ec        0     1                 $d.7
c0de90f0 c0de90f0      44c     4         build/flex/obj/sdk/lib_nbgl/src/nbgl_page.o:(.text.nbgl_pageDrawGenericContentExt)
c0de90f0 c0de90f0        0     1                 $t.8
c0de90f1 c0de90f1      44c     1                 nbgl_pageDrawGenericContentExt
c0de9538 c0de9538        0     1                 $d.9
c0de953c c0de953c        6     2         build/flex/obj/sdk/lib_nbgl/src/nbgl_page.o:(.text.nbgl_pageDrawGenericContent)
c0de953c c0de953c        0     1                 $t.10
c0de953d c0de953d        6     1                 nbgl_pageDrawGenericContent
c0de9542 c0de9542        4     2         build/flex/obj/sdk/lib_nbgl/src/nbgl_page.o:(.text.nbgl_pageRelease)
c0de9542 c0de9542        0     1                 $t.11
c0de9543 c0de9543        4     1                 nbgl_pageRelease
c0de9546 c0de9546        8     2         build/flex/obj/sdk/lib_nbgl/src/nbgl_page.o:(.text.OUTLINED_FUNCTION_0)
c0de9546 c0de9546        0     1                 $t.12
c0de9547 c0de9547        8     1                 OUTLINED_FUNCTION_0
c0de954e c0de954e       12     2         build/flex/obj/sdk/lib_nbgl/src/nbgl_page.o:(.text.OUTLINED_FUNCTION_1)
c0de954e c0de954e        0     1                 $t.13
c0de954f c0de954f       12     1                 OUTLINED_FUNCTION_1
c0de9560 c0de9560        c     2         build/flex/obj/sdk/lib_nbgl/src/nbgl_page.o:(.text.OUTLINED_FUNCTION_2)
c0de9560 c0de9560        0     1                 $t.14
c0de9561 c0de9561        c     1                 OUTLINED_FUNCTION_2
c0de956c c0de956c        e     2         build/flex/obj/sdk/lib_nbgl/src/nbgl_page.o:(.text.OUTLINED_FUNCTION_3)
c0de956c c0de956c        0     1                 $t.15
c0de956d c0de956d        e     1                 OUTLINED_FUNCTION_3
c0de957a c0de957a        e     2         build/flex/obj/sdk/lib_nbgl/src/nbgl_page.o:(.text.OUTLINED_FUNCTION_4)
c0de957a c0de957a        0     1                 $t.16
c0de957b c0de957b        e     1                 OUTLINED_FUNCTION_4
c0de9588 c0de9588        a     2         build/flex/obj/sdk/lib_nbgl/src/nbgl_page.o:(.text.OUTLINED_FUNCTION_5)
c0de9588 c0de9588        0     1                 $t.17
c0de9589 c0de9589        a     1                 OUTLINED_FUNCTION_5
c0de9592 c0de9592      136     2         build/flex/obj/sdk/lib_nbgl/src/nbgl_use_case.o:(.text.getNbTagValuesInPage)
c0de9592 c0de9592        0     1                 $t.1
c0de9593 c0de9593      136     1                 getNbTagValuesInPage
c0de96c8 c0de96c8       92     2         build/flex/obj/sdk/lib_nbgl/src/nbgl_use_case.o:(.text.nbgl_useCaseGetNbInfosInPage)
c0de96c8 c0de96c8        0     1                 $t.3
c0de96c9 c0de96c9       92     1                 nbgl_useCaseGetNbInfosInPage
c0de975a c0de975a       6c     2         build/flex/obj/sdk/lib_nbgl/src/nbgl_use_case.o:(.text.nbgl_useCaseGetNbSwitchesInPage)
c0de975a c0de975a        0     1                 $t.4
c0de975b c0de975b       6c     1                 nbgl_useCaseGetNbSwitchesInPage
c0de97c6 c0de97c6       40     2         build/flex/obj/sdk/lib_nbgl/src/nbgl_use_case.o:(.text.nbgl_useCaseGetNbBarsInPage)
c0de97c6 c0de97c6        0     1                 $t.5
c0de97c7 c0de97c7       40     1                 nbgl_useCaseGetNbBarsInPage
c0de9806 c0de9806       3c     2         build/flex/obj/sdk/lib_nbgl/src/nbgl_use_case.o:(.text.nbgl_useCaseGetNbChoicesInPage)
c0de9806 c0de9806        0     1                 $t.6
c0de9807 c0de9807       3c     1                 nbgl_useCaseGetNbChoicesInPage
c0de9844 c0de9844      134     4         build/flex/obj/sdk/lib_nbgl/src/nbgl_use_case.o:(.text.useCaseHomeExt)
c0de9844 c0de9844        0     1                 $t.9
c0de9845 c0de9845      134     1                 useCaseHomeExt
c0de9954 c0de9954        0     1                 $d.10
c0de9978 c0de9978       2c     4         build/flex/obj/sdk/lib_nbgl/src/nbgl_use_case.o:(.text.reset_callbacks_and_context)
c0de9978 c0de9978        0     1                 $t.14
c0de9979 c0de9979       2c     1                 reset_callbacks_and_context
c0de999c c0de999c        0     1                 $d.15
c0de99a4 c0de99a4       78     4         build/flex/obj/sdk/lib_nbgl/src/nbgl_use_case.o:(.text.prepareNavInfo)
c0de99a4 c0de99a4        0     1                 $t.16
c0de99a5 c0de99a5       78     1                 prepareNavInfo
c0de9a18 c0de9a18        0     1                 $d.17
c0de9a1c c0de9a1c       64     4         build/flex/obj/sdk/lib_nbgl/src/nbgl_use_case.o:(.text.displaySettingsPage)
c0de9a1c c0de9a1c        0     1                 $t.18
c0de9a1d c0de9a1d       64     1                 displaySettingsPage
c0de9a78 c0de9a78        0     1                 $d.19
c0de9a80 c0de9a80       b4     4         build/flex/obj/sdk/lib_nbgl/src/nbgl_use_case.o:(.text.nbgl_useCaseGenericSettings)
c0de9a80 c0de9a80        0     1                 $t.21
c0de9a81 c0de9a81       b4     1                 nbgl_useCaseGenericSettings
c0de9b28 c0de9b28        0     1                 $d.22
c0de9b34 c0de9b34       50     4         build/flex/obj/sdk/lib_nbgl/src/nbgl_use_case.o:(.text.getNbPagesForGenericContents)
c0de9b34 c0de9b34        0     1                 $t.23
c0de9b35 c0de9b35       50     1                 getNbPagesForGenericContents
c0de9b80 c0de9b80        0     1                 $d.24
c0de9b84 c0de9b84      124     4         build/flex/obj/sdk/lib_nbgl/src/nbgl_use_case.o:(.text.getNbPagesForContent)
c0de9b84 c0de9b84        0     1                 $t.25
c0de9b85 c0de9b85      124     1                 getNbPagesForContent
c0de9ca0 c0de9ca0        0     1                 $d.26
c0de9ca8 c0de9ca8      40c     4         build/flex/obj/sdk/lib_nbgl/src/nbgl_use_case.o:(.text.displayGenericContextPage)
c0de9ca8 c0de9ca8        0     1                 $t.27
c0de9ca9 c0de9ca9      40c     1                 displayGenericContextPage
c0dea090 c0dea090        0     1                 $d.28
c0dea0b4 c0dea0b4       6c     4         build/flex/obj/sdk/lib_nbgl/src/nbgl_use_case.o:(.text.nbgl_useCaseHomeAndSettings)
c0dea0b4 c0dea0b4        0     1                 $t.30
c0dea0b5 c0dea0b5       6c     1                 nbgl_useCaseHomeAndSettings
c0dea11c c0dea11c        0     1                 $d.31
c0dea120 c0dea120       24     4         build/flex/obj/sdk/lib_nbgl/src/nbgl_use_case.o:(.text.bundleNavStartSettingsAtPage)
c0dea120 c0dea120        0     1                 $t.32
c0dea121 c0dea121       24     1                 bundleNavStartSettingsAtPage
c0dea13c c0dea13c        0     1                 $d.33
c0dea144 c0dea144       30     4         build/flex/obj/sdk/lib_nbgl/src/nbgl_use_case.o:(.text.bundleNavStartHome)
c0dea144 c0dea144        0     1                 $t.34
c0dea145 c0dea145       30     1                 bundleNavStartHome
c0dea16c c0dea16c        0     1                 $d.35
c0dea174 c0dea174       a8     4         build/flex/obj/sdk/lib_nbgl/src/nbgl_use_case.o:(.text.nbgl_useCaseStatus)
c0dea174 c0dea174        0     1                 $t.36
c0dea175 c0dea175       a8     1                 nbgl_useCaseStatus
c0dea204 c0dea204        0     1                 $d.37
c0dea21c c0dea21c       20     4         build/flex/obj/sdk/lib_nbgl/src/nbgl_use_case.o:(.text.tickerCallback)
c0dea21c c0dea21c        0     1                 $t.38
c0dea21d c0dea21d       20     1                 tickerCallback
c0dea238 c0dea238        0     1                 $d.39
c0dea23c c0dea23c      3a8     4         build/flex/obj/sdk/lib_nbgl/src/nbgl_use_case.o:(.text.pageCallback)
c0dea23c c0dea23c        0     1                 $t.40
c0dea23d c0dea23d      3a8     1                 pageCallback
c0dea5bc c0dea5bc        0     1                 $d.41
c0dea5e4 c0dea5e4       94     4         build/flex/obj/sdk/lib_nbgl/src/nbgl_use_case.o:(.text.nbgl_useCaseReviewStatus)
c0dea5e4 c0dea5e4        0     1                 $t.42
c0dea5e5 c0dea5e5       94     1                 nbgl_useCaseReviewStatus
c0dea658 c0dea658        0     1                 $d.43
c0dea678 c0dea678       74     4         build/flex/obj/sdk/lib_nbgl/src/nbgl_use_case.o:(.text.nbgl_useCaseChoice)
c0dea678 c0dea678        0     1                 $t.44
c0dea679 c0dea679       74     1                 nbgl_useCaseChoice
c0dea6e4 c0dea6e4        0     1                 $d.45
c0dea6ec c0dea6ec       54     4         build/flex/obj/sdk/lib_nbgl/src/nbgl_use_case.o:(.text.nbgl_useCaseConfirm)
c0dea6ec c0dea6ec        0     1                 $t.46
c0dea6ed c0dea6ed       54     1                 nbgl_useCaseConfirm
c0dea730 c0dea730        0     1                 $d.47
c0dea740 c0dea740       e4     4         build/flex/obj/sdk/lib_nbgl/src/nbgl_use_case.o:(.text.pageModalCallback)
c0dea740 c0dea740        0     1                 $t.48
c0dea741 c0dea741       e4     1                 pageModalCallback
c0dea818 c0dea818        0     1                 $d.49
c0dea824 c0dea824       ac     4         build/flex/obj/sdk/lib_nbgl/src/nbgl_use_case.o:(.text.displayReviewPage)
c0dea824 c0dea824        0     1                 $t.56
c0dea825 c0dea825       ac     1                 displayReviewPage
c0dea8c8 c0dea8c8        0     1                 $d.57
c0dea8d0 c0dea8d0       28     2         build/flex/obj/sdk/lib_nbgl/src/nbgl_use_case.o:(.text.nbgl_useCaseReview)
c0dea8d0 c0dea8d0        0     1                 $t.62
c0dea8d1 c0dea8d1       28     1                 nbgl_useCaseReview
c0dea8f8 c0dea8f8      134     4         build/flex/obj/sdk/lib_nbgl/src/nbgl_use_case.o:(.text.useCaseReview)
c0dea8f8 c0dea8f8        0     1                 $t.63
c0dea8f9 c0dea8f9      134     1                 useCaseReview
c0deaa00 c0deaa00        0     1                 $d.64
c0deaa2c c0deaa2c       28     4         build/flex/obj/sdk/lib_nbgl/src/nbgl_use_case.o:(.text.nbgl_useCaseReviewBlindSigning)
c0deaa2c c0deaa2c        0     1                 $t.65
c0deaa2d c0deaa2d       28     1                 nbgl_useCaseReviewBlindSigning
c0deaa50 c0deaa50        0     1                 $d.66
c0deaa54 c0deaa54       cc     4         build/flex/obj/sdk/lib_nbgl/src/nbgl_use_case.o:(.text.nbgl_useCaseAdvancedReview)
c0deaa54 c0deaa54        0     1                 $t.67
c0deaa55 c0deaa55       cc     1                 nbgl_useCaseAdvancedReview
c0deab18 c0deab18        0     1                 $d.68
c0deab20 c0deab20      1a8     4         build/flex/obj/sdk/lib_nbgl/src/nbgl_use_case.o:(.text.displayInitialWarning)
c0deab20 c0deab20        0     1                 $t.69
c0deab21 c0deab21      1a8     1                 displayInitialWarning
c0deac7c c0deac7c        0     1                 $d.70
c0deacc8 c0deacc8       bc     4         build/flex/obj/sdk/lib_nbgl/src/nbgl_use_case.o:(.text.useCaseReviewStreamingStart)
c0deacc8 c0deacc8        0     1                 $t.75
c0deacc9 c0deacc9       bc     1                 useCaseReviewStreamingStart
c0dead68 c0dead68        0     1                 $d.76
c0dead84 c0dead84       48     4         build/flex/obj/sdk/lib_nbgl/src/nbgl_use_case.o:(.text.bundleNavReviewStreamingChoice)
c0dead84 c0dead84        0     1                 $t.83
c0dead85 c0dead85       48     1                 bundleNavReviewStreamingChoice
c0deadbc c0deadbc        0     1                 $d.84
c0deadcc c0deadcc       40     4         build/flex/obj/sdk/lib_nbgl/src/nbgl_use_case.o:(.text.prepareReviewLastPage)
c0deadcc c0deadcc        0     1                 $t.88
c0deadcd c0deadcd       40     1                 prepareReviewLastPage
c0deadfc c0deadfc        0     1                 $d.89
c0deae0c c0deae0c      160     4         build/flex/obj/sdk/lib_nbgl/src/nbgl_use_case.o:(.text.prepareAddressConfirmationPages)
c0deae0c c0deae0c        0     1                 $t.92
c0deae0d c0deae0d      160     1                 prepareAddressConfirmationPages
c0deaf54 c0deaf54        0     1                 $d.93
c0deaf6c c0deaf6c       d8     4         build/flex/obj/sdk/lib_nbgl/src/nbgl_use_case.o:(.text.nbgl_useCaseAddressReview)
c0deaf6c c0deaf6c        0     1                 $t.94
c0deaf6d c0deaf6d       d8     1                 nbgl_useCaseAddressReview
c0deb028 c0deb028        0     1                 $d.95
c0deb044 c0deb044       88     4         build/flex/obj/sdk/lib_nbgl/src/nbgl_use_case.o:(.text.nbgl_useCaseSpinner)
c0deb044 c0deb044        0     1                 $t.96
c0deb045 c0deb045       88     1                 nbgl_useCaseSpinner
c0deb0c8 c0deb0c8        0     1                 $d.97
c0deb0cc c0deb0cc       54     4         build/flex/obj/sdk/lib_nbgl/src/nbgl_use_case.o:(.text.getContentAtIdx)
c0deb0cc c0deb0cc        0     1                 $t.98
c0deb0cd c0deb0cd       54     1                 getContentAtIdx
c0deb11c c0deb11c        0     1                 $d.99
c0deb120 c0deb120       2e     2         build/flex/obj/sdk/lib_nbgl/src/nbgl_use_case.o:(.text.getContentNbElement)
c0deb120 c0deb120        0     1                 $t.100
c0deb121 c0deb121       2e     1                 getContentNbElement
c0deb150 c0deb150      124     4         build/flex/obj/sdk/lib_nbgl/src/nbgl_use_case.o:(.text.genericContextComputeNextPageParams)
c0deb150 c0deb150        0     1                 $t.101
c0deb151 c0deb151      124     1                 genericContextComputeNextPageParams
c0deb264 c0deb264        0     1                 $d.102
c0deb274 c0deb274       28     4         build/flex/obj/sdk/lib_nbgl/src/nbgl_use_case.o:(.text.genericContextGetPageInfo)
c0deb274 c0deb274        0     1                 $t.103
c0deb275 c0deb275       28     1                 genericContextGetPageInfo
c0deb298 c0deb298        0     1                 $d.104
c0deb29c c0deb29c        6     2         build/flex/obj/sdk/lib_nbgl/src/nbgl_use_case.o:(.text.bundleNavStartSettings)
c0deb29c c0deb29c        0     1                 $t.105
c0deb29d c0deb29d        6     1                 bundleNavStartSettings
c0deb2a4 c0deb2a4      1bc     4         build/flex/obj/sdk/lib_nbgl/src/nbgl_use_case.o:(.text.displayFullValuePage)
c0deb2a4 c0deb2a4        0     1                 $t.106
c0deb2a5 c0deb2a5      1bc     1                 displayFullValuePage
c0deb44c c0deb44c        0     1                 $d.107
c0deb460 c0deb460      214     4         build/flex/obj/sdk/lib_nbgl/src/nbgl_use_case.o:(.text.displaySecurityReport)
c0deb460 c0deb460        0     1                 $t.108
c0deb461 c0deb461      214     1                 displaySecurityReport
c0deb634 c0deb634        0     1                 $d.109
c0deb674 c0deb674       f8     4         build/flex/obj/sdk/lib_nbgl/src/nbgl_use_case.o:(.text.displayCustomizedSecurityReport)
c0deb674 c0deb674        0     1                 $t.110
c0deb675 c0deb675       f8     1                 displayCustomizedSecurityReport
c0deb75c c0deb75c        0     1                 $d.111
c0deb76c c0deb76c       84     4         build/flex/obj/sdk/lib_nbgl/src/nbgl_use_case.o:(.text.displayInfosListModal)
c0deb76c c0deb76c        0     1                 $t.112
c0deb76d c0deb76d       84     1                 displayInfosListModal
c0deb7e0 c0deb7e0        0     1                 $d.113
c0deb7f0 c0deb7f0       dc     4         build/flex/obj/sdk/lib_nbgl/src/nbgl_use_case.o:(.text.modalLayoutTouchCallback)
c0deb7f0 c0deb7f0        0     1                 $t.114
c0deb7f1 c0deb7f1       dc     1                 modalLayoutTouchCallback
c0deb8c4 c0deb8c4        0     1                 $d.115
c0deb8cc c0deb8cc      174     4         build/flex/obj/sdk/lib_nbgl/src/nbgl_use_case.o:(.text.displayDetailsPage)
c0deb8cc c0deb8cc        0     1                 $t.116
c0deb8cd c0deb8cd      174     1                 displayDetailsPage
c0deba30 c0deba30        0     1                 $d.117
c0deba40 c0deba40      128     4         build/flex/obj/sdk/lib_nbgl/src/nbgl_use_case.o:(.text.displayTagValueListModalPage)
c0deba40 c0deba40        0     1                 $t.118
c0deba41 c0deba41      128     1                 displayTagValueListModalPage
c0debb54 c0debb54        0     1                 $d.119
c0debb68 c0debb68       24     4         build/flex/obj/sdk/lib_nbgl/src/nbgl_use_case.o:(.text.bundleNavReviewChoice)
c0debb68 c0debb68        0     1                 $t.120
c0debb69 c0debb69       24     1                 bundleNavReviewChoice
c0debb84 c0debb84        0     1                 $d.121
c0debb8c c0debb8c       bc     4         build/flex/obj/sdk/lib_nbgl/src/nbgl_use_case.o:(.text.initWarningTipBox)
c0debb8c c0debb8c        0     1                 $t.122
c0debb8d c0debb8d       bc     1                 initWarningTipBox
c0debc1c c0debc1c        0     1                 $d.123
c0debc48 c0debc48       54     4         build/flex/obj/sdk/lib_nbgl/src/nbgl_use_case.o:(.text.bundleNavReviewAskRejectionConfirmation)
c0debc48 c0debc48        0     1                 $t.124
c0debc49 c0debc49       54     1                 bundleNavReviewAskRejectionConfirmation
c0debc80 c0debc80        0     1                 $d.125
c0debc9c c0debc9c        c     4         build/flex/obj/sdk/lib_nbgl/src/nbgl_use_case.o:(.text.bundleNavReviewConfirmRejection)
c0debc9c c0debc9c        0     1                 $t.126
c0debc9d c0debc9d        c     1                 bundleNavReviewConfirmRejection
c0debca4 c0debca4        0     1                 $d.127
c0debca8 c0debca8       a0     4         build/flex/obj/sdk/lib_nbgl/src/nbgl_use_case.o:(.text.layoutTouchCallback)
c0debca8 c0debca8        0     1                 $t.128
c0debca9 c0debca9       a0     1                 layoutTouchCallback
c0debd40 c0debd40        0     1                 $d.129
c0debd48 c0debd48        c     4         build/flex/obj/sdk/lib_nbgl/src/nbgl_use_case.o:(.text.bundleNavReviewStreamingConfirmRejection)
c0debd48 c0debd48        0     1                 $t.130
c0debd49 c0debd49        c     1                 bundleNavReviewStreamingConfirmRejection
c0debd50 c0debd50        0     1                 $d.131
c0debd54 c0debd54        a     2         build/flex/obj/sdk/lib_nbgl/src/nbgl_use_case.o:(.text.OUTLINED_FUNCTION_0)
c0debd54 c0debd54        0     1                 $t.132
c0debd55 c0debd55        a     1                 OUTLINED_FUNCTION_0
c0debd5e c0debd5e        c     2         build/flex/obj/sdk/lib_nbgl/src/nbgl_use_case.o:(.text.OUTLINED_FUNCTION_1)
c0debd5e c0debd5e        0     1                 $t.133
c0debd5f c0debd5f        c     1                 OUTLINED_FUNCTION_1
c0debd6a c0debd6a        a     2         build/flex/obj/sdk/lib_nbgl/src/nbgl_use_case.o:(.text.OUTLINED_FUNCTION_2)
c0debd6a c0debd6a        0     1                 $t.134
c0debd6b c0debd6b        a     1                 OUTLINED_FUNCTION_2
c0debd74 c0debd74        6     2         build/flex/obj/sdk/lib_nbgl/src/nbgl_use_case.o:(.text.OUTLINED_FUNCTION_3)
c0debd74 c0debd74        0     1                 $t.135
c0debd75 c0debd75        6     1                 OUTLINED_FUNCTION_3
c0debd7a c0debd7a       12     2         build/flex/obj/sdk/lib_nbgl/src/nbgl_use_case.o:(.text.OUTLINED_FUNCTION_4)
c0debd7a c0debd7a        0     1                 $t.136
c0debd7b c0debd7b       12     1                 OUTLINED_FUNCTION_4
c0debd8c c0debd8c        6     2         build/flex/obj/sdk/lib_nbgl/src/nbgl_use_case.o:(.text.OUTLINED_FUNCTION_5)
c0debd8c c0debd8c        0     1                 $t.137
c0debd8d c0debd8d        6     1                 OUTLINED_FUNCTION_5
c0debd92 c0debd92        6     2         build/flex/obj/sdk/lib_nbgl/src/nbgl_use_case.o:(.text.OUTLINED_FUNCTION_6)
c0debd92 c0debd92        0     1                 $t.138
c0debd93 c0debd93        6     1                 OUTLINED_FUNCTION_6
c0debd98 c0debd98        c     2         build/flex/obj/sdk/lib_nbgl/src/nbgl_use_case.o:(.text.OUTLINED_FUNCTION_7)
c0debd98 c0debd98        0     1                 $t.139
c0debd99 c0debd99        c     1                 OUTLINED_FUNCTION_7
c0debda4 c0debda4        8     2         build/flex/obj/sdk/lib_nbgl/src/nbgl_use_case.o:(.text.OUTLINED_FUNCTION_9)
c0debda4 c0debda4        0     1                 $t.141
c0debda5 c0debda5        8     1                 OUTLINED_FUNCTION_9
c0debdac c0debdac        a     2         build/flex/obj/sdk/lib_nbgl/src/nbgl_use_case.o:(.text.OUTLINED_FUNCTION_11)
c0debdac c0debdac        0     1                 $t.143
c0debdad c0debdad        a     1                 OUTLINED_FUNCTION_11
c0debdb6 c0debdb6        a     2         build/flex/obj/sdk/lib_nbgl/src/nbgl_use_case.o:(.text.OUTLINED_FUNCTION_12)
c0debdb6 c0debdb6        0     1                 $t.144
c0debdb7 c0debdb7        a     1                 OUTLINED_FUNCTION_12
c0debdc0 c0debdc0        6     2         build/flex/obj/sdk/lib_nbgl/src/nbgl_use_case.o:(.text.OUTLINED_FUNCTION_13)
c0debdc0 c0debdc0        0     1                 $t.145
c0debdc1 c0debdc1        6     1                 OUTLINED_FUNCTION_13
c0debdc6 c0debdc6        a     2         build/flex/obj/sdk/lib_nbgl/src/nbgl_use_case.o:(.text.OUTLINED_FUNCTION_14)
c0debdc6 c0debdc6        0     1                 $t.146
c0debdc7 c0debdc7        a     1                 OUTLINED_FUNCTION_14
c0debdd0 c0debdd0       4e     2         build/flex/obj/sdk/lib_standard_app/bip32.o:(.text.bip32_path_read)
c0debdd0 c0debdd0        0     1                 $t.0
c0debdd1 c0debdd1       4e     1                 bip32_path_read
c0debe1e c0debe1e       16     2         build/flex/obj/sdk/lib_standard_app/buffer.o:(.text.buffer_seek_cur)
c0debe1e c0debe1e        0     1                 $t.2
c0debe1f c0debe1f       16     1                 buffer_seek_cur
c0debe34 c0debe34       2c     2         build/flex/obj/sdk/lib_standard_app/buffer.o:(.text.buffer_read_u8)
c0debe34 c0debe34        0     1                 $t.4
c0debe35 c0debe35       2c     1                 buffer_read_u8
c0debe60 c0debe60       40     2         build/flex/obj/sdk/lib_standard_app/buffer.o:(.text.buffer_read_u64)
c0debe60 c0debe60        0     1                 $t.7
c0debe61 c0debe61       40     1                 buffer_read_u64
c0debea0 c0debea0       3a     2         build/flex/obj/sdk/lib_standard_app/buffer.o:(.text.buffer_read_varint)
c0debea0 c0debea0        0     1                 $t.8
c0debea1 c0debea1       3a     1                 buffer_read_varint
c0debeda c0debeda       2e     2         build/flex/obj/sdk/lib_standard_app/buffer.o:(.text.buffer_read_bip32_path)
c0debeda c0debeda        0     1                 $t.9
c0debedb c0debedb       2e     1                 buffer_read_bip32_path
c0debf08 c0debf08       26     2         build/flex/obj/sdk/lib_standard_app/buffer.o:(.text.buffer_copy)
c0debf08 c0debf08        0     1                 $t.10
c0debf09 c0debf09       26     1                 buffer_copy
c0debf2e c0debf2e       32     2         build/flex/obj/sdk/lib_standard_app/buffer.o:(.text.buffer_move)
c0debf2e c0debf2e        0     1                 $t.11
c0debf2f c0debf2f       32     1                 buffer_move
c0debf60 c0debf60        c     2         build/flex/obj/sdk/lib_standard_app/buffer.o:(.text.OUTLINED_FUNCTION_0)
c0debf60 c0debf60        0     1                 $t.12
c0debf61 c0debf61        c     1                 OUTLINED_FUNCTION_0
c0debf6c c0debf6c       70     2         build/flex/obj/sdk/lib_standard_app/crypto_helpers.o:(.text.bip32_derive_with_seed_init_privkey_256)
c0debf6c c0debf6c        0     1                 $t.0
c0debf6d c0debf6d       70     1                 bip32_derive_with_seed_init_privkey_256
c0debfdc c0debfdc       80     2         build/flex/obj/sdk/lib_standard_app/crypto_helpers.o:(.text.os_derive_bip32_with_seed_no_throw)
c0debfdc c0debfdc        0     1                 $t.1
c0debfdd c0debfdd       80     1                 os_derive_bip32_with_seed_no_throw
c0dec05c c0dec05c       68     2         build/flex/obj/sdk/lib_standard_app/crypto_helpers.o:(.text.bip32_derive_with_seed_get_pubkey_256)
c0dec05c c0dec05c        0     1                 $t.2
c0dec05d c0dec05d       68     1                 bip32_derive_with_seed_get_pubkey_256
c0dec0c4 c0dec0c4       4e     2         build/flex/obj/sdk/lib_standard_app/crypto_helpers.o:(.text.bip32_derive_with_seed_ecdsa_sign_hash_256)
c0dec0c4 c0dec0c4        0     1                 $t.3
c0dec0c5 c0dec0c5       4e     1                 bip32_derive_with_seed_ecdsa_sign_hash_256
c0dec112 c0dec112        6     2         build/flex/obj/sdk/lib_standard_app/crypto_helpers.o:(.text.OUTLINED_FUNCTION_0)
c0dec112 c0dec112        0     1                 $t.6
c0dec113 c0dec113        6     1                 OUTLINED_FUNCTION_0
c0dec118 c0dec118       72     2         build/flex/obj/sdk/lib_standard_app/format.o:(.text.format_u64)
c0dec118 c0dec118        0     1                 $t.2
c0dec119 c0dec119       72     1                 format_u64
c0dec18a c0dec18a       8e     2         build/flex/obj/sdk/lib_standard_app/format.o:(.text.format_fpu64)
c0dec18a c0dec18a        0     1                 $t.3
c0dec18b c0dec18b       8e     1                 format_fpu64
c0dec218 c0dec218       50     4         build/flex/obj/sdk/lib_standard_app/format.o:(.text.format_hex)
c0dec218 c0dec218        0     1                 $t.5
c0dec219 c0dec219       50     1                 format_hex
c0dec264 c0dec264        0     1                 $d.6
c0dec268 c0dec268        2     2         build/flex/obj/sdk/lib_standard_app/io.o:(.text.app_ticker_event_callback)
c0dec268 c0dec268        0     1                 $t.0
c0dec269 c0dec269        2     1                 app_ticker_event_callback
c0dec26c c0dec26c       34     4         build/flex/obj/sdk/lib_standard_app/io.o:(.text.io_event)
c0dec26c c0dec26c        0     1                 $t.1
c0dec26d c0dec26d       34     1                 io_event
c0dec29c c0dec29c        0     1                 $d.2
c0dec2a0 c0dec2a0       10     4         build/flex/obj/sdk/lib_standard_app/io.o:(.text.io_init)
c0dec2a0 c0dec2a0        0     1                 $t.3
c0dec2a1 c0dec2a1       10     1                 io_init
c0dec2ac c0dec2ac        0     1                 $d.4
c0dec2b0 c0dec2b0       2c     4         build/flex/obj/sdk/lib_standard_app/io.o:(.text.io_recv_command)
c0dec2b0 c0dec2b0        0     1                 $t.5
c0dec2b1 c0dec2b1       2c     1                 io_recv_command
c0dec2d8 c0dec2d8        0     1                 $d.6
c0dec2dc c0dec2dc       6c     4         build/flex/obj/sdk/lib_standard_app/io.o:(.text.io_send_response_buffers)
c0dec2dc c0dec2dc        0     1                 $t.7
c0dec2dd c0dec2dd       6c     1                 io_send_response_buffers
c0dec344 c0dec344        0     1                 $d.8
c0dec348 c0dec348        6     2         build/flex/obj/sdk/lib_standard_app/main.o:(.text.app_exit)
c0dec348 c0dec348        0     1                 $t.0
c0dec349 c0dec349        6     1                 app_exit
c0dec34e c0dec34e        e     2         build/flex/obj/sdk/lib_standard_app/main.o:(.text.common_app_init)
c0dec34e c0dec34e        0     1                 $t.1
c0dec34f c0dec34f        e     1                 common_app_init
c0dec35c c0dec35c       4e     2         build/flex/obj/sdk/lib_standard_app/main.o:(.text.standalone_app_main)
c0dec35c c0dec35c        0     1                 $t.2
c0dec35d c0dec35d       4e     1                 standalone_app_main
c0dec3aa c0dec3aa       36     2         build/flex/obj/sdk/lib_standard_app/parser.o:(.text.apdu_parser)
c0dec3aa c0dec3aa        0     1                 $t.0
c0dec3ab c0dec3ab       36     1                 apdu_parser
c0dec3e0 c0dec3e0       18     2         build/flex/obj/sdk/lib_standard_app/read.o:(.text.read_u32_be)
c0dec3e0 c0dec3e0        0     1                 $t.1
c0dec3e1 c0dec3e1       18     1                 read_u32_be
c0dec3f8 c0dec3f8       30     2         build/flex/obj/sdk/lib_standard_app/read.o:(.text.read_u64_be)
c0dec3f8 c0dec3f8        0     1                 $t.2
c0dec3f9 c0dec3f9       30     1                 read_u64_be
c0dec428 c0dec428        e     2         build/flex/obj/sdk/lib_standard_app/read.o:(.text.read_u16_le)
c0dec428 c0dec428        0     1                 $t.3
c0dec429 c0dec429        e     1                 read_u16_le
c0dec436 c0dec436       18     2         build/flex/obj/sdk/lib_standard_app/read.o:(.text.read_u32_le)
c0dec436 c0dec436        0     1                 $t.4
c0dec437 c0dec437       18     1                 read_u32_le
c0dec44e c0dec44e       2e     2         build/flex/obj/sdk/lib_standard_app/read.o:(.text.read_u64_le)
c0dec44e c0dec44e        0     1                 $t.5
c0dec44f c0dec44f       2e     1                 read_u64_le
c0dec47c c0dec47c       5c     2         build/flex/obj/sdk/lib_standard_app/varint.o:(.text.varint_read)
c0dec47c c0dec47c        0     1                 $t.1
c0dec47d c0dec47d       5c     1                 varint_read
c0dec4d8 c0dec4d8        a     2         build/flex/obj/sdk/lib_standard_app/write.o:(.text.write_u16_be)
c0dec4d8 c0dec4d8        0     1                 $t.0
c0dec4d9 c0dec4d9        a     1                 write_u16_be
c0dec4e4 c0dec4e4       58     4         build/flex/obj/sdk/lib_ux_nbgl/ux.o:(.text.ux_process_finger_event)
c0dec4e4 c0dec4e4        0     1                 $t.0
c0dec4e5 c0dec4e5       58     1                 ux_process_finger_event
c0dec538 c0dec538        0     1                 $d.1
c0dec53c c0dec53c       54     4         build/flex/obj/sdk/lib_ux_nbgl/ux.o:(.text.ux_forward_event)
c0dec53c c0dec53c        0     1                 $t.2
c0dec53d c0dec53d       54     1                 ux_forward_event
c0dec58c c0dec58c        0     1                 $d.3
c0dec590 c0dec590       6c     4         build/flex/obj/sdk/lib_ux_nbgl/ux.o:(.text.ux_process_ticker_event)
c0dec590 c0dec590        0     1                 $t.4
c0dec591 c0dec591       6c     1                 ux_process_ticker_event
c0dec5f8 c0dec5f8        0     1                 $d.5
c0dec5fc c0dec5fc        6     2         build/flex/obj/sdk/lib_ux_nbgl/ux.o:(.text.ux_process_default_event)
c0dec5fc c0dec5fc        0     1                 $t.6
c0dec5fd c0dec5fd        6     1                 ux_process_default_event
c0dec602 c0dec602       4e     2         build/flex/obj/sdk/src/cx_hash_iovec.o:(.text.hash_iovec_ex)
c0dec602 c0dec602        0     1                 $t.7
c0dec603 c0dec603       4e     1                 hash_iovec_ex
c0dec650 c0dec650       1a     2         build/flex/obj/sdk/src/cx_hash_iovec.o:(.text.cx_keccak_256_hash_iovec)
c0dec650 c0dec650        0     1                 $t.12
c0dec651 c0dec651       1a     1                 cx_keccak_256_hash_iovec
c0dec66a c0dec66a        a     1         build/flex/obj/sdk/src/cx_stubs.o:(.text.cx_ecdsa_sign_no_throw)
c0dec66a c0dec66a        0     1                 $t.44
c0dec66b c0dec66b        0     1                 cx_ecdsa_sign_no_throw
c0dec674 c0dec674        a     1         build/flex/obj/sdk/src/cx_stubs.o:(.text.cx_ecfp_generate_pair2_no_throw)
c0dec674 c0dec674        0     1                 $t.49
c0dec675 c0dec675        0     1                 cx_ecfp_generate_pair2_no_throw
c0dec67e c0dec67e        a     1         build/flex/obj/sdk/src/cx_stubs.o:(.text.cx_ecfp_init_private_key_no_throw)
c0dec67e c0dec67e        0     1                 $t.51
c0dec67f c0dec67f        0     1                 cx_ecfp_init_private_key_no_throw
c0dec688 c0dec688        a     1         build/flex/obj/sdk/src/cx_stubs.o:(.text.cx_hash_final)
c0dec688 c0dec688        0     1                 $t.63
c0dec689 c0dec689        0     1                 cx_hash_final
c0dec692 c0dec692        a     1         build/flex/obj/sdk/src/cx_stubs.o:(.text.cx_hash_init_ex)
c0dec692 c0dec692        0     1                 $t.67
c0dec693 c0dec693        0     1                 cx_hash_init_ex
c0dec69c c0dec69c        a     1         build/flex/obj/sdk/src/cx_stubs.o:(.text.cx_hash_update)
c0dec69c c0dec69c        0     1                 $t.72
c0dec69d c0dec69d        0     1                 cx_hash_update
c0dec6a6 c0dec6a6        a     1         build/flex/obj/sdk/src/cx_stubs.o:(.text.cx_rng_no_throw)
c0dec6a6 c0dec6a6        0     1                 $t.106
c0dec6a7 c0dec6a7        0     1                 cx_rng_no_throw
c0dec6b0 c0dec6b0       10     4         build/flex/obj/sdk/src/cx_stubs.o:(.text.cx_aes_siv_reset)
c0dec6b0 c0dec6b0        0     1                 $t.144
c0dec6b1 c0dec6b1        0     1                 cx_aes_siv_reset
c0dec6b9 c0dec6b9        0     1                 cx_trampoline_helper
c0dec6bc c0dec6bc        0     1                 $d.145
c0dec6c0 c0dec6c0        6     2         build/flex/obj/sdk/src/ledger_assert.o:(.text.assert_exit)
c0dec6c0 c0dec6c0        0     1                 $t.0
c0dec6c1 c0dec6c1        6     1                 assert_exit
c0dec6c6 c0dec6c6        a     1         build/flex/obj/sdk/src/nbgl_stubs.o:(.text.nbgl_refresh)
c0dec6c6 c0dec6c6        0     1                 $t.0
c0dec6c7 c0dec6c7        0     1                 nbgl_refresh
c0dec6d0 c0dec6d0        a     1         build/flex/obj/sdk/src/nbgl_stubs.o:(.text.nbgl_refreshSpecial)
c0dec6d0 c0dec6d0        0     1                 $t.1
c0dec6d1 c0dec6d1        0     1                 nbgl_refreshSpecial
c0dec6da c0dec6da        a     1         build/flex/obj/sdk/src/nbgl_stubs.o:(.text.nbgl_refreshSpecialWithPostRefresh)
c0dec6da c0dec6da        0     1                 $t.2
c0dec6db c0dec6db        0     1                 nbgl_refreshSpecialWithPostRefresh
c0dec6e4 c0dec6e4        a     1         build/flex/obj/sdk/src/nbgl_stubs.o:(.text.nbgl_objInit)
c0dec6e4 c0dec6e4        0     1                 $t.5
c0dec6e5 c0dec6e5        0     1                 nbgl_objInit
c0dec6ee c0dec6ee        a     1         build/flex/obj/sdk/src/nbgl_stubs.o:(.text.nbgl_objDraw)
c0dec6ee c0dec6ee        0     1                 $t.6
c0dec6ef c0dec6ef        0     1                 nbgl_objDraw
c0dec6f8 c0dec6f8        a     1         build/flex/obj/sdk/src/nbgl_stubs.o:(.text.nbgl_objAllowDrawing)
c0dec6f8 c0dec6f8        0     1                 $t.7
c0dec6f9 c0dec6f9        0     1                 nbgl_objAllowDrawing
c0dec702 c0dec702        a     1         build/flex/obj/sdk/src/nbgl_stubs.o:(.text.nbgl_screenSet)
c0dec702 c0dec702        0     1                 $t.10
c0dec703 c0dec703        0     1                 nbgl_screenSet
c0dec70c c0dec70c        a     1         build/flex/obj/sdk/src/nbgl_stubs.o:(.text.nbgl_screenPush)
c0dec70c c0dec70c        0     1                 $t.11
c0dec70d c0dec70d        0     1                 nbgl_screenPush
c0dec716 c0dec716        a     1         build/flex/obj/sdk/src/nbgl_stubs.o:(.text.nbgl_screenRedraw)
c0dec716 c0dec716        0     1                 $t.12
c0dec717 c0dec717        0     1                 nbgl_screenRedraw
c0dec720 c0dec720        a     1         build/flex/obj/sdk/src/nbgl_stubs.o:(.text.nbgl_screenPop)
c0dec720 c0dec720        0     1                 $t.13
c0dec721 c0dec721        0     1                 nbgl_screenPop
c0dec72a c0dec72a        a     1         build/flex/obj/sdk/src/nbgl_stubs.o:(.text.nbgl_screenUpdateTicker)
c0dec72a c0dec72a        0     1                 $t.19
c0dec72b c0dec72b        0     1                 nbgl_screenUpdateTicker
c0dec734 c0dec734        a     1         build/flex/obj/sdk/src/nbgl_stubs.o:(.text.nbgl_screenHandler)
c0dec734 c0dec734        0     1                 $t.22
c0dec735 c0dec735        0     1                 nbgl_screenHandler
c0dec73e c0dec73e        a     1         build/flex/obj/sdk/src/nbgl_stubs.o:(.text.nbgl_objPoolGet)
c0dec73e c0dec73e        0     1                 $t.23
c0dec73f c0dec73f        0     1                 nbgl_objPoolGet
c0dec748 c0dec748        a     1         build/flex/obj/sdk/src/nbgl_stubs.o:(.text.nbgl_containerPoolGet)
c0dec748 c0dec748        0     1                 $t.25
c0dec749 c0dec749        0     1                 nbgl_containerPoolGet
c0dec752 c0dec752        a     1         build/flex/obj/sdk/src/nbgl_stubs.o:(.text.nbgl_getFont)
c0dec752 c0dec752        0     1                 $t.27
c0dec753 c0dec753        0     1                 nbgl_getFont
c0dec75c c0dec75c        a     1         build/flex/obj/sdk/src/nbgl_stubs.o:(.text.nbgl_getFontHeight)
c0dec75c c0dec75c        0     1                 $t.28
c0dec75d c0dec75d        0     1                 nbgl_getFontHeight
c0dec766 c0dec766        a     1         build/flex/obj/sdk/src/nbgl_stubs.o:(.text.nbgl_getFontLineHeight)
c0dec766 c0dec766        0     1                 $t.29
c0dec767 c0dec767        0     1                 nbgl_getFontLineHeight
c0dec770 c0dec770        a     1         build/flex/obj/sdk/src/nbgl_stubs.o:(.text.nbgl_getTextHeightInWidth)
c0dec770 c0dec770        0     1                 $t.33
c0dec771 c0dec771        0     1                 nbgl_getTextHeightInWidth
c0dec77a c0dec77a        a     1         build/flex/obj/sdk/src/nbgl_stubs.o:(.text.nbgl_getTextNbLinesInWidth)
c0dec77a c0dec77a        0     1                 $t.34
c0dec77b c0dec77b        0     1                 nbgl_getTextNbLinesInWidth
c0dec784 c0dec784        a     1         build/flex/obj/sdk/src/nbgl_stubs.o:(.text.nbgl_getTextWidth)
c0dec784 c0dec784        0     1                 $t.36
c0dec785 c0dec785        0     1                 nbgl_getTextWidth
c0dec78e c0dec78e        a     1         build/flex/obj/sdk/src/nbgl_stubs.o:(.text.nbgl_getTextMaxLenInNbLines)
c0dec78e c0dec78e        0     1                 $t.37
c0dec78f c0dec78f        0     1                 nbgl_getTextMaxLenInNbLines
c0dec798 c0dec798        a     1         build/flex/obj/sdk/src/nbgl_stubs.o:(.text.nbgl_textReduceOnNbLines)
c0dec798 c0dec798        0     1                 $t.38
c0dec799 c0dec799        0     1                 nbgl_textReduceOnNbLines
c0dec7a2 c0dec7a2        a     1         build/flex/obj/sdk/src/nbgl_stubs.o:(.text.nbgl_touchHandler)
c0dec7a2 c0dec7a2        0     1                 $t.41
c0dec7a3 c0dec7a3        0     1                 nbgl_touchHandler
c0dec7ac c0dec7ac        a     1         build/flex/obj/sdk/src/nbgl_stubs.o:(.text.nbgl_touchGetTouchDuration)
c0dec7ac c0dec7ac        0     1                 $t.42
c0dec7ad c0dec7ad        0     1                 nbgl_touchGetTouchDuration
c0dec7b8 c0dec7b8       10     4         build/flex/obj/sdk/src/nbgl_stubs.o:(.text.pic_init)
c0dec7b8 c0dec7b8        0     1                 $t.50
c0dec7b9 c0dec7b9        0     1                 pic_init
c0dec7c1 c0dec7c1        0     1                 nbgl_trampoline_helper
c0dec7c4 c0dec7c4        0     1                 $d.51
c0dec7c8 c0dec7c8        6     2         build/flex/obj/sdk/src/os.o:(.text.os_boot)
c0dec7c8 c0dec7c8        0     1                 $t.0
c0dec7c9 c0dec7c9        6     1                 os_boot
c0dec7ce c0dec7ce        c     2         build/flex/obj/sdk/src/os.o:(.text.os_longjmp)
c0dec7ce c0dec7ce        0     1                 $t.3
c0dec7cf c0dec7cf        c     1                 os_longjmp
c0dec7dc c0dec7dc      324     4         build/flex/obj/sdk/src/os_printf.o:(.text.snprintf)
c0dec7dc c0dec7dc        0     1                 $t.0
c0dec7dd c0dec7dd      324     1                 snprintf
c0decaec c0decaec        0     1                 $d.1
c0decb00 c0decb00       3c     4         build/flex/obj/sdk/src/pic.o:(.text.pic)
c0decb00 c0decb00        0     1                 $t.0
c0decb01 c0decb01       2a     1                 pic
c0decb2c c0decb2c        0     1                 $d.2
c0decb3c c0decb3c       10     4         build/flex/obj/sdk/src/pic.o:(.text.pic_internal)
c0decb3c c0decb3c        0     1                 $t.1
c0decb3d c0decb3d        c     1                 pic_internal
c0decb48 c0decb48        0     1                 $d.3
c0decb4c c0decb4c        e     4         build/flex/obj/sdk/src/svc_call.o:(.text)
c0decb4c c0decb4c        0     1                 $t.0
c0decb4d c0decb4d        0     1                 SVC_Call
c0decb54 c0decb54        0     1                 exception
c0decb5c c0decb5c        4     4         build/flex/obj/sdk/src/svc_cx_call.o:(.text)
c0decb5c c0decb5c        0     1                 $t.0
c0decb5d c0decb5d        0     1                 SVC_cx_call
c0decb60 c0decb60       14     4         build/flex/obj/sdk/src/syscalls.o:(.text.nbgl_wait_pipeline)
c0decb60 c0decb60        0     1                 $t.23
c0decb61 c0decb61       14     1                 nbgl_wait_pipeline
c0decb70 c0decb70        0     1                 $d.24
c0decb74 c0decb74       14     4         build/flex/obj/sdk/src/syscalls.o:(.text.nvm_write)
c0decb74 c0decb74        0     1                 $t.25
c0decb75 c0decb75       14     1                 nvm_write
c0decb84 c0decb84        0     1                 $d.26
c0decb88 c0decb88       14     4         build/flex/obj/sdk/src/syscalls.o:(.text.cx_bn_lock)
c0decb88 c0decb88        0     1                 $t.34
c0decb89 c0decb89       14     1                 cx_bn_lock
c0decb98 c0decb98        0     1                 $d.35
c0decb9c c0decb9c       10     2         build/flex/obj/sdk/src/syscalls.o:(.text.cx_bn_unlock)
c0decb9c c0decb9c        0     1                 $t.36
c0decb9d c0decb9d       10     1                 cx_bn_unlock
c0decbac c0decbac       14     4         build/flex/obj/sdk/src/syscalls.o:(.text.cx_bn_alloc)
c0decbac c0decbac        0     1                 $t.38
c0decbad c0decbad       14     1                 cx_bn_alloc
c0decbbc c0decbbc        0     1                 $d.39
c0decbc0 c0decbc0       18     4         build/flex/obj/sdk/src/syscalls.o:(.text.cx_bn_alloc_init)
c0decbc0 c0decbc0        0     1                 $t.40
c0decbc1 c0decbc1       18     1                 cx_bn_alloc_init
c0decbd4 c0decbd4        0     1                 $d.41
c0decbd8 c0decbd8       14     4         build/flex/obj/sdk/src/syscalls.o:(.text.cx_bn_destroy)
c0decbd8 c0decbd8        0     1                 $t.42
c0decbd9 c0decbd9       14     1                 cx_bn_destroy
c0decbe8 c0decbe8        0     1                 $d.43
c0decbec c0decbec       14     4         build/flex/obj/sdk/src/syscalls.o:(.text.cx_bn_nbytes)
c0decbec c0decbec        0     1                 $t.44
c0decbed c0decbed       14     1                 cx_bn_nbytes
c0decbfc c0decbfc        0     1                 $d.45
c0decc00 c0decc00       14     4         build/flex/obj/sdk/src/syscalls.o:(.text.cx_bn_copy)
c0decc00 c0decc00        0     1                 $t.50
c0decc01 c0decc01       14     1                 cx_bn_copy
c0decc10 c0decc10        0     1                 $d.51
c0decc14 c0decc14       14     4         build/flex/obj/sdk/src/syscalls.o:(.text.cx_bn_set_u32)
c0decc14 c0decc14        0     1                 $t.52
c0decc15 c0decc15       14     1                 cx_bn_set_u32
c0decc24 c0decc24        0     1                 $d.53
c0decc28 c0decc28       18     4         build/flex/obj/sdk/src/syscalls.o:(.text.cx_bn_export)
c0decc28 c0decc28        0     1                 $t.56
c0decc29 c0decc29       18     1                 cx_bn_export
c0decc3c c0decc3c        0     1                 $d.57
c0decc40 c0decc40       18     4         build/flex/obj/sdk/src/syscalls.o:(.text.cx_bn_cmp)
c0decc40 c0decc40        0     1                 $t.58
c0decc41 c0decc41       18     1                 cx_bn_cmp
c0decc54 c0decc54        0     1                 $d.59
c0decc58 c0decc58       18     4         build/flex/obj/sdk/src/syscalls.o:(.text.cx_bn_cmp_u32)
c0decc58 c0decc58        0     1                 $t.60
c0decc59 c0decc59       18     1                 cx_bn_cmp_u32
c0decc6c c0decc6c        0     1                 $d.61
c0decc70 c0decc70       18     4         build/flex/obj/sdk/src/syscalls.o:(.text.cx_bn_tst_bit)
c0decc70 c0decc70        0     1                 $t.70
c0decc71 c0decc71       18     1                 cx_bn_tst_bit
c0decc84 c0decc84        0     1                 $d.71
c0decc88 c0decc88       18     4         build/flex/obj/sdk/src/syscalls.o:(.text.cx_bn_mod_add)
c0decc88 c0decc88        0     1                 $t.88
c0decc89 c0decc89       18     1                 cx_bn_mod_add
c0decc9c c0decc9c        0     1                 $d.89
c0decca0 c0decca0       18     4         build/flex/obj/sdk/src/syscalls.o:(.text.cx_bn_mod_sub)
c0decca0 c0decca0        0     1                 $t.90
c0decca1 c0decca1       18     1                 cx_bn_mod_sub
c0deccb4 c0deccb4        0     1                 $d.91
c0deccb8 c0deccb8       14     4         build/flex/obj/sdk/src/syscalls.o:(.text.cx_bn_is_prime)
c0deccb8 c0deccb8        0     1                 $t.108
c0deccb9 c0deccb9       14     1                 cx_bn_is_prime
c0deccc8 c0deccc8        0     1                 $d.109
c0decccc c0decccc       14     4         build/flex/obj/sdk/src/syscalls.o:(.text.cx_mont_alloc)
c0decccc c0decccc        0     1                 $t.116
c0decccd c0decccd       14     1                 cx_mont_alloc
c0deccdc c0deccdc        0     1                 $d.117
c0decce0 c0decce0       14     4         build/flex/obj/sdk/src/syscalls.o:(.text.cx_mont_init)
c0decce0 c0decce0        0     1                 $t.118
c0decce1 c0decce1       14     1                 cx_mont_init
c0deccf0 c0deccf0        0     1                 $d.119
c0deccf4 c0deccf4       18     4         build/flex/obj/sdk/src/syscalls.o:(.text.cx_mont_to_montgomery)
c0deccf4 c0deccf4        0     1                 $t.122
c0deccf5 c0deccf5       18     1                 cx_mont_to_montgomery
c0decd08 c0decd08        0     1                 $d.123
c0decd0c c0decd0c       18     4         build/flex/obj/sdk/src/syscalls.o:(.text.cx_mont_from_montgomery)
c0decd0c c0decd0c        0     1                 $t.124
c0decd0d c0decd0d       18     1                 cx_mont_from_montgomery
c0decd20 c0decd20        0     1                 $d.125
c0decd24 c0decd24       18     4         build/flex/obj/sdk/src/syscalls.o:(.text.cx_mont_mul)
c0decd24 c0decd24        0     1                 $t.126
c0decd25 c0decd25       18     1                 cx_mont_mul
c0decd38 c0decd38        0     1                 $d.127
c0decd3c c0decd3c       18     4         build/flex/obj/sdk/src/syscalls.o:(.text.cx_mont_invert_nprime)
c0decd3c c0decd3c        0     1                 $t.132
c0decd3d c0decd3d       18     1                 cx_mont_invert_nprime
c0decd50 c0decd50        0     1                 $d.133
c0decd54 c0decd54       14     4         build/flex/obj/sdk/src/syscalls.o:(.text.cx_ecdomain_parameters_length)
c0decd54 c0decd54        0     1                 $t.136
c0decd55 c0decd55       14     1                 cx_ecdomain_parameters_length
c0decd64 c0decd64        0     1                 $d.137
c0decd68 c0decd68       28     4         build/flex/obj/sdk/src/syscalls.o:(.text.os_perso_derive_node_with_seed_key)
c0decd68 c0decd68        0     1                 $t.212
c0decd69 c0decd69       28     1                 os_perso_derive_node_with_seed_key
c0decd8c c0decd8c        0     1                 $d.213
c0decd90 c0decd90       20     4         build/flex/obj/sdk/src/syscalls.o:(.text.os_pki_load_certificate)
c0decd90 c0decd90        0     1                 $t.216
c0decd91 c0decd91       20     1                 os_pki_load_certificate
c0decdac c0decdac        0     1                 $d.217
c0decdb0 c0decdb0       12     2         build/flex/obj/sdk/src/syscalls.o:(.text.os_perso_is_pin_set)
c0decdb0 c0decdb0        0     1                 $t.242
c0decdb1 c0decdb1       12     1                 os_perso_is_pin_set
c0decdc2 c0decdc2       12     2         build/flex/obj/sdk/src/syscalls.o:(.text.os_global_pin_is_validated)
c0decdc2 c0decdc2        0     1                 $t.243
c0decdc3 c0decdc3       12     1                 os_global_pin_is_validated
c0decdd4 c0decdd4       14     4         build/flex/obj/sdk/src/syscalls.o:(.text.os_ux)
c0decdd4 c0decdd4        0     1                 $t.251
c0decdd5 c0decdd5       14     1                 os_ux
c0decde4 c0decde4        0     1                 $d.252
c0decde8 c0decde8       10     2         build/flex/obj/sdk/src/syscalls.o:(.text.os_flags)
c0decde8 c0decde8        0     1                 $t.260
c0decde9 c0decde9       10     1                 os_flags
c0decdf8 c0decdf8       18     4         build/flex/obj/sdk/src/syscalls.o:(.text.os_setting_get)
c0decdf8 c0decdf8        0     1                 $t.272
c0decdf9 c0decdf9       18     1                 os_setting_get
c0dece0c c0dece0c        0     1                 $d.273
c0dece10 c0dece10       18     4         build/flex/obj/sdk/src/syscalls.o:(.text.os_registry_get_current_app_tag)
c0dece10 c0dece10        0     1                 $t.280
c0dece11 c0dece11       18     1                 os_registry_get_current_app_tag
c0dece24 c0dece24        0     1                 $d.281
c0dece28 c0dece28       14     4         build/flex/obj/sdk/src/syscalls.o:(.text.os_sched_exit)
c0dece28 c0dece28        0     1                 $t.287
c0dece29 c0dece29       14     1                 os_sched_exit
c0dece38 c0dece38        0     1                 $d.288
c0dece3c c0dece3c       14     4         build/flex/obj/sdk/src/syscalls.o:(.text.os_io_init)
c0dece3c c0dece3c        0     1                 $t.299
c0dece3d c0dece3d       14     1                 os_io_init
c0dece4c c0dece4c        0     1                 $d.300
c0dece50 c0dece50       14     4         build/flex/obj/sdk/src/syscalls.o:(.text.os_io_start)
c0dece50 c0dece50        0     1                 $t.301
c0dece51 c0dece51       14     1                 os_io_start
c0dece60 c0dece60        0     1                 $d.302
c0dece64 c0dece64       18     4         build/flex/obj/sdk/src/syscalls.o:(.text.os_io_tx_cmd)
c0dece64 c0dece64        0     1                 $t.305
c0dece65 c0dece65       18     1                 os_io_tx_cmd
c0dece78 c0dece78        0     1                 $d.306
c0dece7c c0dece7c       18     4         build/flex/obj/sdk/src/syscalls.o:(.text.os_io_rx_evt)
c0dece7c c0dece7c        0     1                 $t.307
c0dece7d c0dece7d       18     1                 os_io_rx_evt
c0dece90 c0dece90        0     1                 $d.308
c0dece94 c0dece94       10     2         build/flex/obj/sdk/src/syscalls.o:(.text.try_context_get)
c0dece94 c0dece94        0     1                 $t.313
c0dece95 c0dece95       10     1                 try_context_get
c0decea4 c0decea4       14     4         build/flex/obj/sdk/src/syscalls.o:(.text.try_context_set)
c0decea4 c0decea4        0     1                 $t.314
c0decea5 c0decea5       14     1                 try_context_set
c0deceb4 c0deceb4        0     1                 $d.315
c0deceb8 c0deceb8       18     4         build/flex/obj/sdk/src/syscalls.o:(.text.os_sched_last_status)
c0deceb8 c0deceb8        0     1                 $t.316
c0deceb9 c0deceb9       18     1                 os_sched_last_status
c0dececc c0dececc        0     1                 $d.317
c0deced0 c0deced0       14     4         build/flex/obj/sdk/src/syscalls.o:(.text.touch_get_last_info)
c0deced0 c0deced0        0     1                 $t.333
c0deced1 c0deced1       14     1                 touch_get_last_info
c0decee0 c0decee0        0     1                 $d.334
c0decee4 c0decee4        8     2         build/flex/obj/sdk/src/syscalls.o:(.text.OUTLINED_FUNCTION_0)
c0decee4 c0decee4        0     1                 $t.339
c0decee5 c0decee5        8     1                 OUTLINED_FUNCTION_0
c0deceec c0deceec       22     4         /opt/flex-secure-sdk/arch/st33k1/lib/libclang_rt.builtins.a(ashldi3.c.o):(.text)
c0deceec c0deceec        0     1                 $t.0
c0deceed c0deceed       22     1                 __ashldi3
c0deceed c0deceed       22     1                 __aeabi_llsl
c0decf10 c0decf10       22     4         /opt/flex-secure-sdk/arch/st33k1/lib/libclang_rt.builtins.a(lshrdi3.c.o):(.text)
c0decf10 c0decf10        0     1                 $t.0
c0decf11 c0decf11       22     1                 __lshrdi3
c0decf11 c0decf11       22     1                 __aeabi_llsr
c0decf34 c0decf34      1c6     4         /opt/flex-secure-sdk/arch/st33k1/lib/libclang_rt.builtins.a(udivmoddi4.c.o):(.text)
c0decf34 c0decf34        0     1                 $t.0
c0decf35 c0decf35      1c6     1                 __udivmoddi4
c0ded0fc c0ded0fc        4     4         /opt/flex-secure-sdk/arch/st33k1/lib/libclang_rt.builtins.a(aeabi_memcpy.S.o):(.text)
c0ded0fc c0ded0fc        0     1                 $t.0
c0ded0fd c0ded0fd        4     1                 __aeabi_memcpy
c0ded0fd c0ded0fd        4     1                 __aeabi_memcpy4
c0ded0fd c0ded0fd        4     1                 __aeabi_memcpy8
c0ded100 c0ded100        4     4         /opt/flex-secure-sdk/arch/st33k1/lib/libclang_rt.builtins.a(aeabi_memmove.S.o):(.text)
c0ded100 c0ded100        0     1                 $t.0
c0ded101 c0ded101        4     1                 __aeabi_memmove
c0ded101 c0ded101        4     1                 __aeabi_memmove4
c0ded101 c0ded101        4     1                 __aeabi_memmove8
c0ded104 c0ded104       14     4         /opt/flex-secure-sdk/arch/st33k1/lib/libclang_rt.builtins.a(aeabi_memset.S.o):(.text)
c0ded104 c0ded104        0     1                 $t.0
c0ded105 c0ded105        a     1                 __aeabi_memset
c0ded105 c0ded105        a     1                 __aeabi_memset4
c0ded105 c0ded105        a     1                 __aeabi_memset8
c0ded111 c0ded111        8     1                 __aeabi_memclr
c0ded111 c0ded111        8     1                 __aeabi_memclr4
c0ded111 c0ded111        8     1                 __aeabi_memclr8
c0ded118 c0ded118       14     4         /opt/flex-secure-sdk/arch/st33k1/lib/libclang_rt.builtins.a(aeabi_uldivmod.S.o):(.text)
c0ded118 c0ded118        0     1                 $t.0
c0ded119 c0ded119       14     1                 __aeabi_uldivmod
c0ded12c c0ded12c        4     2         /opt/flex-secure-sdk/arch/st33k1/lib/libc.a(lib_a-explicit_bzero.o):(.text.explicit_bzero)
c0ded12c c0ded12c        0     1                 $t
c0ded12d c0ded12d        4     1                 explicit_bzero
c0ded130 c0ded130        8     2         /opt/flex-secure-sdk/arch/st33k1/lib/libc.a(lib_a-bzero.o):(.text.bzero)
c0ded130 c0ded130        0     1                 $t
c0ded131 c0ded131        8     1                 bzero
c0ded138 c0ded138       20     2         /opt/flex-secure-sdk/arch/st33k1/lib/libc.a(lib_a-memcmp.o):(.text.memcmp)
c0ded138 c0ded138        0     1                 $t
c0ded139 c0ded139       20     1                 memcmp
c0ded158 c0ded158       1c     2         /opt/flex-secure-sdk/arch/st33k1/lib/libc.a(lib_a-memcpy-stub.o):(.text.memcpy)
c0ded158 c0ded158        0     1                 $t
c0ded159 c0ded159       1c     1                 memcpy
c0ded174 c0ded174       34     2         /opt/flex-secure-sdk/arch/st33k1/lib/libc.a(lib_a-memmove.o):(.text.memmove)
c0ded174 c0ded174        0     1                 $t
c0ded175 c0ded175       34     1                 memmove
c0ded1a8 c0ded1a8       10     2         /opt/flex-secure-sdk/arch/st33k1/lib/libc.a(lib_a-memset.o):(.text.memset)
c0ded1a8 c0ded1a8        0     1                 $t
c0ded1a9 c0ded1a9       10     1                 memset
c0ded1b8 c0ded1b8       1c     4         /opt/flex-secure-sdk/arch/st33k1/lib/libc.a(lib_a-setjmp.o):(.text)
c0ded1b8 c0ded1b8        0     1                 $t
c0ded1b9 c0ded1b9        c     1                 setjmp
c0ded1c5 c0ded1c5        e     1                 longjmp
c0ded1d4 c0ded1d4       14     2         /opt/flex-secure-sdk/arch/st33k1/lib/libc.a(lib_a-strcmp.o):(.text)
c0ded1d4 c0ded1d4        0     1                 $t
c0ded1d5 c0ded1d5       14     1                 strcmp
c0ded1e8 c0ded1e8       10     2         /opt/flex-secure-sdk/arch/st33k1/lib/libc.a(lib_a-strlen.o):(.text)
c0ded1e8 c0ded1e8        0     1                 $t
c0ded1e9 c0ded1e9       10     1                 strlen
c0ded1f8 c0ded1f8       26     2         /opt/flex-secure-sdk/arch/st33k1/lib/libc.a(lib_a-strncpy.o):(.text.strncpy)
c0ded1f8 c0ded1f8        0     1                 $t
c0ded1f9 c0ded1f9       26     1                 strncpy
c0ded21e c0ded21e        0     1         _ecode = .
c0ded21e c0ded21e       bb     1         build/flex/gen_src/glyphs.o:(.rodata.C_app_boilerplate_64px_bitmap)
c0ded21e c0ded21e       bb     1                 C_app_boilerplate_64px_bitmap
c0ded2d9 c0ded2d9        a     1         build/flex/gen_src/glyphs.o:(.rodata.C_app_boilerplate_64px)
c0ded2d9 c0ded2d9        a     1                 C_app_boilerplate_64px
c0ded2e3 c0ded2e3      23b     1         build/flex/gen_src/glyphs.o:(.rodata.C_Check_Circle_64px_bitmap)
c0ded2e3 c0ded2e3      23b     1                 C_Check_Circle_64px_bitmap
c0ded51e c0ded51e        a     1         build/flex/gen_src/glyphs.o:(.rodata.C_Check_Circle_64px)
c0ded51e c0ded51e        a     1                 C_Check_Circle_64px
c0ded528 c0ded528      238     1         build/flex/gen_src/glyphs.o:(.rodata.C_Denied_Circle_64px_bitmap)
c0ded528 c0ded528      238     1                 C_Denied_Circle_64px_bitmap
c0ded760 c0ded760        a     1         build/flex/gen_src/glyphs.o:(.rodata.C_Denied_Circle_64px)
c0ded760 c0ded760        a     1                 C_Denied_Circle_64px
c0ded76a c0ded76a      202     1         build/flex/gen_src/glyphs.o:(.rodata.C_Important_Circle_64px_bitmap)
c0ded76a c0ded76a      202     1                 C_Important_Circle_64px_bitmap
c0ded96c c0ded96c        a     1         build/flex/gen_src/glyphs.o:(.rodata.C_Important_Circle_64px)
c0ded96c c0ded96c        a     1                 C_Important_Circle_64px
c0ded976 c0ded976      167     1         build/flex/gen_src/glyphs.o:(.rodata.C_Warning_64px_bitmap)
c0ded976 c0ded976      167     1                 C_Warning_64px_bitmap
c0dedadd c0dedadd        a     1         build/flex/gen_src/glyphs.o:(.rodata.C_Warning_64px)
c0dedadd c0dedadd        a     1                 C_Warning_64px
c0dedae7 c0dedae7       94     1         build/flex/gen_src/glyphs.o:(.rodata.C_Back_40px_bitmap)
c0dedae7 c0dedae7       94     1                 C_Back_40px_bitmap
c0dedb7b c0dedb7b        a     1         build/flex/gen_src/glyphs.o:(.rodata.C_Back_40px)
c0dedb7b c0dedb7b        a     1                 C_Back_40px
c0dedb85 c0dedb85       5c     1         build/flex/gen_src/glyphs.o:(.rodata.C_Check_40px_bitmap)
c0dedb85 c0dedb85       5c     1                 C_Check_40px_bitmap
c0dedbe1 c0dedbe1        a     1         build/flex/gen_src/glyphs.o:(.rodata.C_Check_40px)
c0dedbe1 c0dedbe1        a     1                 C_Check_40px
c0dedbeb c0dedbeb       64     1         build/flex/gen_src/glyphs.o:(.rodata.C_Chevron_40px_bitmap)
c0dedbeb c0dedbeb       64     1                 C_Chevron_40px_bitmap
c0dedc4f c0dedc4f        a     1         build/flex/gen_src/glyphs.o:(.rodata.C_Chevron_40px)
c0dedc4f c0dedc4f        a     1                 C_Chevron_40px
c0dedc59 c0dedc59       7e     1         build/flex/gen_src/glyphs.o:(.rodata.C_Chevron_Back_40px_bitmap)
c0dedc59 c0dedc59       7e     1                 C_Chevron_Back_40px_bitmap
c0dedcd7 c0dedcd7        a     1         build/flex/gen_src/glyphs.o:(.rodata.C_Chevron_Back_40px)
c0dedcd7 c0dedcd7        a     1                 C_Chevron_Back_40px
c0dedce1 c0dedce1       79     1         build/flex/gen_src/glyphs.o:(.rodata.C_Chevron_Next_40px_bitmap)
c0dedce1 c0dedce1       79     1                 C_Chevron_Next_40px_bitmap
c0dedd5a c0dedd5a        a     1         build/flex/gen_src/glyphs.o:(.rodata.C_Chevron_Next_40px)
c0dedd5a c0dedd5a        a     1                 C_Chevron_Next_40px
c0dedd64 c0dedd64       8d     1         build/flex/gen_src/glyphs.o:(.rodata.C_Close_40px_bitmap)
c0dedd64 c0dedd64       8d     1                 C_Close_40px_bitmap
c0deddf1 c0deddf1        a     1         build/flex/gen_src/glyphs.o:(.rodata.C_Close_40px)
c0deddf1 c0deddf1        a     1                 C_Close_40px
c0deddfb c0deddfb       39     1         build/flex/gen_src/glyphs.o:(.rodata.C_Info_40px_bitmap)
c0deddfb c0deddfb       39     1                 C_Info_40px_bitmap
c0dede34 c0dede34        a     1         build/flex/gen_src/glyphs.o:(.rodata.C_Info_40px)
c0dede34 c0dede34        a     1                 C_Info_40px
c0dede3e c0dede3e       d6     1         build/flex/gen_src/glyphs.o:(.rodata.C_Mini_Push_40px_bitmap)
c0dede3e c0dede3e       d6     1                 C_Mini_Push_40px_bitmap
c0dedf14 c0dedf14        a     1         build/flex/gen_src/glyphs.o:(.rodata.C_Mini_Push_40px)
c0dedf14 c0dedf14        a     1                 C_Mini_Push_40px
c0dedf1e c0dedf1e      1b4     1         build/flex/gen_src/glyphs.o:(.rodata.C_Privacy_40px_bitmap)
c0dedf1e c0dedf1e      1b4     1                 C_Privacy_40px_bitmap
c0dee0d2 c0dee0d2        a     1         build/flex/gen_src/glyphs.o:(.rodata.C_Privacy_40px)
c0dee0d2 c0dee0d2        a     1                 C_Privacy_40px
c0dee0dc c0dee0dc       a1     1         build/flex/gen_src/glyphs.o:(.rodata.C_QRCode_40px_bitmap)
c0dee0dc c0dee0dc       a1     1                 C_QRCode_40px_bitmap
c0dee17d c0dee17d        a     1         build/flex/gen_src/glyphs.o:(.rodata.C_QRCode_40px)
c0dee17d c0dee17d        a     1                 C_QRCode_40px
c0dee187 c0dee187      19b     1         build/flex/gen_src/glyphs.o:(.rodata.C_Settings_40px_bitmap)
c0dee187 c0dee187      19b     1                 C_Settings_40px_bitmap
c0dee322 c0dee322        a     1         build/flex/gen_src/glyphs.o:(.rodata.C_Settings_40px)
c0dee322 c0dee322        a     1                 C_Settings_40px
c0dee32c c0dee32c       ef     1         build/flex/gen_src/glyphs.o:(.rodata.C_Warning_40px_bitmap)
c0dee32c c0dee32c       ef     1                 C_Warning_40px_bitmap
c0dee41b c0dee41b        a     1         build/flex/gen_src/glyphs.o:(.rodata.C_Warning_40px)
c0dee41b c0dee41b        a     1                 C_Warning_40px
c0dee425 c0dee425      993     1         <internal>:(.text)
c0deedb8 c0deedb8      1a0     4         <internal>:(.text)
c0deef58 c0deef58      995     1         build/flex/obj/app/src/handler/zkn_magicbox.o:(.rodata.handler_cmd_verify_dilithium.sig)
c0deef58 c0deef58      995     1                 handler_cmd_verify_dilithium.sig
c0def8ed c0def8ed      520     1         build/flex/obj/app/src/handler/zkn_magicbox.o:(.rodata.handler_cmd_verify_dilithium.pk)
c0def8ed c0def8ed      520     1                 handler_cmd_verify_dilithium.pk
c0defe10 c0defe10        c     4         build/flex/obj/app/src/ui/menu_nbgl.o:(.rodata.settingContents)
c0defe10 c0defe10        c     1                 settingContents
c0defe1c c0defe1c       10     4         build/flex/obj/app/src/ui/menu_nbgl.o:(.rodata.infoList)
c0defe1c c0defe1c       10     1                 infoList
c0defe2c c0defe2c       38     4         build/flex/obj/app/src/ui/menu_nbgl.o:(.rodata.contents)
c0defe2c c0defe2c       38     1                 contents
c0defe64 c0defe64        8     4         build/flex/obj/app/src/ui/menu_nbgl.o:(.rodata.INFO_TYPES)
c0defe64 c0defe64        8     1                 INFO_TYPES
c0defe6c c0defe6c        8     4         build/flex/obj/app/src/ui/menu_nbgl.o:(.rodata.INFO_CONTENTS)
c0defe6c c0defe6c        8     1                 INFO_CONTENTS
c0defe78 c0defe78       c0     8         build/flex/obj/app/src/zknox/dilithium/fips202.o:(.rodata.pqcrystals_dilithium_fips202_ref_KeccakF_RoundConstants)
c0defe78 c0defe78       c0     1                 pqcrystals_dilithium_fips202_ref_KeccakF_RoundConstants
c0deff38 c0deff38      400     4         build/flex/obj/app/src/zknox/dilithium/ntt.o:(.rodata.zetas)
c0deff38 c0deff38      400     1                 zetas
c0df0338 c0df0338      100     2         build/flex/obj/app/src/zknox/dilithium/smallntt_3329.o:(.rodata.small_zetas)
c0df0338 c0df0338      100     1                 small_zetas
c0df0438 c0df0438        c     4         build/flex/obj/sdk/lib_nbgl/src/nbgl_use_case.o:(.rodata..L__const.nbgl_useCaseStatus.ticker)
c0df0438 c0df0438        c     1                 .L__const.nbgl_useCaseStatus.ticker
c0df0444 c0df0444       28     4         build/flex/obj/sdk/lib_nbgl/src/nbgl_use_case.o:(.rodata.blindSigningWarning)
c0df0444 c0df0444       28     1                 blindSigningWarning
c0df046c c0df046c       36     4         <internal>:(.text)
c0df04a2 c0df04a2        b     1         build/flex/obj/sdk/lib_nbgl/src/nbgl_use_case.o:(.rodata.nbMaxElementsPerContentType)
c0df04a2 c0df04a2        b     1                 nbMaxElementsPerContentType
c0df04b0 c0df04b0       50     4         <internal>:(.text)
c0df0500 c0df0500       20     4         build/flex/obj/sdk/lib_nbgl/src/nbgl_use_case.o:(.rodata..L__const.displaySkipWarning.info)
c0df0500 c0df0500       20     1                 .L__const.displaySkipWarning.info
c0df0520 c0df0520       3c     4         build/flex/obj/sdk/lib_nbgl/src/nbgl_use_case.o:(.rodata.securityReportItems)
c0df0520 c0df0520       3c     1                 securityReportItems
c0df055c c0df055c       1c     4         build/flex/obj/sdk/lib_nbgl/src/nbgl_use_case.o:(.rodata..L__const.displayCustomizedSecurityReport.layoutDescription)
c0df055c c0df055c       1c     1                 .L__const.displayCustomizedSecurityReport.layoutDescription
c0df0578 c0df0578       1c     4         build/flex/obj/sdk/lib_nbgl/src/nbgl_use_case.o:(.rodata..L__const.displayInfosListModal.info)
c0df0578 c0df0578       1c     1                 .L__const.displayInfosListModal.info
c0df0594 c0df0594       10     4         build/flex/obj/sdk/lib_nbgl/src/nbgl_use_case.o:(.rodata..L__const.displayInitialWarning.buttonsInfo)
c0df0594 c0df0594       10     1                 .L__const.displayInitialWarning.buttonsInfo
c0df05a4 c0df05a4        0     1         . = ALIGN ( 4 )
c0df05a4 c0df05a4        0     1         _etext = .
c0df05a4 c0df05a4       5c     1         . = ALIGN ( PAGE_SIZE )
c0df0600 c0df0600        0     1         _nvram_data = .
c0df0600 c0df0600        3     1         build/flex/obj/app/src/app_main.o:(.rodata.N_storage_real)
c0df0600 c0df0600        3     1                 N_storage_real
c0df0603 c0df0603      1fd     1         . = ALIGN ( PAGE_SIZE )
c0df0800 c0df0800        0     1         _envram_data = .
c0df0800 c0df0800        0     1         _install_parameters = .
c0df0800 c0df0800      168     1         build/flex/obj/sdk/src/app_metadata.o:(.install_parameters)
c0df0800 c0df0800      168     1                 install_parameters
c0df0968 c0df0968        0     1         _einstall_parameters = .
c0df0968 c0df0968        0     1         _nvram_end = .
d0000000 d0000000        0     1 .data
d0000000 d0000000        0     1         . = ALIGN ( 4 )
d0000000 d0000000        0     1         _data = .
d0000000 d0000000        0     1         _edata = .
d0000000 d0000000        0     1 
da7a0000 da7a0000     1dd4     8 .bss
da7a0000 da7a0000        0     1         _bss = .
da7a0000 da7a0000      2d8     8         build/flex/obj/app/src/app_main.o:(.bss.G_context)
da7a0000 da7a0000      2d8     1                 G_context
da7a02d8 da7a02d8     10f8     8         build/flex/obj/app/src/app_main.o:(.bss.g_zknox)
da7a02d8 da7a02d8     10f8     1                 g_zknox
da7a13d0 da7a13d0       1c     4         build/flex/obj/app/src/ui/menu_nbgl.o:(.bss..L_MergedGlobals)
da7a13d0 da7a13d0       1c     1                 .L_MergedGlobals
da7a13d0 da7a13d0        1     1                 initSettingPage
da7a13d4 da7a13d4       18     1                 switches
da7a13ec da7a13ec       2b     4         build/flex/obj/app/src/ui/nbgl_display_address.o:(.bss.g_address)
da7a13ec da7a13ec       2b     1                 g_address
da7a1418 da7a1418       7f     4         build/flex/obj/app/src/ui/nbgl_display_transaction.o:(.bss..L_MergedGlobals)
da7a1418 da7a1418       7f     1                 .L_MergedGlobals
da7a1418 da7a1418       14     1                 pairList
da7a142c da7a142c       1e     1                 g_amount
da7a144c da7a144c       20     1                 pairs
da7a146c da7a146c       2b     1                 g_address
da7a1497 da7a1497      111     1         build/flex/obj/sdk/io/src/os_io.o:(.bss.G_io_tx_buffer)
da7a1497 da7a1497      111     1                 G_io_tx_buffer
da7a15a8 da7a15a8      111     1         build/flex/obj/sdk/io/src/os_io.o:(.bss.G_io_rx_buffer)
da7a15a8 da7a15a8      111     1                 G_io_rx_buffer
da7a16bc da7a16bc        c     4         build/flex/obj/sdk/io_legacy/src/os_io_legacy.o:(.bss.G_io_app)
da7a16bc da7a16bc        c     1                 G_io_app
da7a16c8 da7a16c8        2     1         build/flex/obj/sdk/io_legacy/src/os_io_legacy.o:(.bss..L_MergedGlobals)
da7a16c8 da7a16c8        2     1                 .L_MergedGlobals
da7a16c8 da7a16c8        1     1                 need_to_start_io
da7a16c9 da7a16c9        1     1                 io_os_legacy_apdu_type
da7a16cc da7a16cc      21c     4         build/flex/obj/sdk/lib_nbgl/src/nbgl_layout.o:(.bss.gLayout)
da7a16cc da7a16cc      21c     1                 gLayout
da7a18e8 da7a18e8        8     4         build/flex/obj/sdk/lib_nbgl/src/nbgl_layout.o:(.bss..L_MergedGlobals)
da7a18e8 da7a18e8        8     1                 .L_MergedGlobals
da7a18e8 da7a18e8        1     1                 nbTouchableControls
da7a18ec da7a18ec        4     1                 topLayout
da7a18f0 da7a18f0        b     1         build/flex/obj/sdk/lib_nbgl/src/nbgl_layout_navigation.o:(.bss.navText)
da7a18f0 da7a18f0        b     1                 navText
da7a18fc da7a18fc       6c     4         build/flex/obj/sdk/lib_nbgl/src/nbgl_use_case.o:(.bss.genericContext)
da7a18fc da7a18fc       6c     1                 genericContext
da7a1968 da7a1968       a8     4         build/flex/obj/sdk/lib_nbgl/src/nbgl_use_case.o:(.bss.localContentsList)
da7a1968 da7a1968       a8     1                 localContentsList
da7a1a10 da7a1a10       38     4         build/flex/obj/sdk/lib_nbgl/src/nbgl_use_case.o:(.bss.addressConfirmationContext)
da7a1a10 da7a1a10       38     1                 addressConfirmationContext
da7a1a48 da7a1a48       80     4         build/flex/obj/sdk/lib_nbgl/src/nbgl_use_case.o:(.bss.tmpString)
da7a1a48 da7a1a48       80     1                 tmpString
da7a1ac8 da7a1ac8       80     1         build/flex/obj/sdk/lib_nbgl/src/nbgl_use_case.o:(.bss.genericContextPagesInfo)
da7a1ac8 da7a1ac8       80     1                 genericContextPagesInfo
da7a1b48 da7a1b48       80     1         build/flex/obj/sdk/lib_nbgl/src/nbgl_use_case.o:(.bss.reducedAddress)
da7a1b48 da7a1b48       80     1                 reducedAddress
da7a1bc8 da7a1bc8       7c     4         build/flex/obj/sdk/lib_nbgl/src/nbgl_use_case.o:(.bss..L_MergedGlobals)
da7a1bc8 da7a1bc8       7c     1                 .L_MergedGlobals
da7a1bc8 da7a1bc8        1     1                 navType
da7a1bcc da7a1bcc        4     1                 onQuit
da7a1bd0 da7a1bd0        4     1                 onNav
da7a1bd4 da7a1bd4        4     1                 onControls
da7a1bd8 da7a1bd8        4     1                 pageTitle
da7a1bdc da7a1bdc        4     1                 pageContext
da7a1be0 da7a1be0        4     1                 onChoice
da7a1be4 da7a1be4        4     1                 onModalConfirm
da7a1be8 da7a1be8        4     1                 modalPageContext
da7a1bec da7a1bec        4     1                 onAction
da7a1bf0 da7a1bf0        4     1                 onContinue
da7a1bf4 da7a1bf4        4     1                 onContentAction
da7a1bf8 da7a1bf8       10     1                 detailsContext
da7a1c08 da7a1c08       10     1                 displayDetailsPage.currentPair
da7a1c18 da7a1c18       10     1                 modalContextPagesInfo
da7a1c28 da7a1c28       1c     1                 navInfo
da7a1c44 da7a1c44       48     4         build/flex/obj/sdk/lib_nbgl/src/nbgl_use_case.o:(.bss..L_MergedGlobals.77)
da7a1c44 da7a1c44       48     1                 .L_MergedGlobals.77
da7a1c44 da7a1c44       20     1                 activeTipBox
da7a1c64 da7a1c64       28     1                 bundleNavContext
da7a1c8c da7a1c8c      110     1         build/flex/obj/sdk/lib_standard_app/io.o:(.bss.G_io_seproxyhal_spi_buffer)
da7a1c8c da7a1c8c      110     1                 G_io_seproxyhal_spi_buffer
da7a1d9c da7a1d9c        1     1         build/flex/obj/sdk/lib_standard_app/io.o:(.bss.need_to_start_io)
da7a1d9c da7a1d9c        1     1                 need_to_start_io
da7a1da0 da7a1da0       20     4         build/flex/obj/sdk/lib_standard_app/main.o:(.bss.G_ux_params)
da7a1da0 da7a1da0       20     1                 G_ux_params
da7a1dc0 da7a1dc0        1     1         build/flex/obj/sdk/lib_u2f_legacy/src/u2f_legacy.o:(.bss.G_io_u2f)
da7a1dc0 da7a1dc0        1     1                 G_io_u2f
da7a1dc4 da7a1dc4        a     4         build/flex/obj/sdk/lib_ux_nbgl/ux.o:(.bss..L_MergedGlobals)
da7a1dc4 da7a1dc4        a     1                 .L_MergedGlobals
da7a1dc4 da7a1dc4        4     1                 nbTicks
da7a1dc8 da7a1dc8        6     1                 pos
da7a1dce da7a1dce        0     1         _ebss = .
da7a1dce da7a1dce        2     1         . = ALIGN ( 4 )
da7a1dd0 da7a1dd0        0     1         app_stack_canary = .
da7a1dd0 da7a1dd0        4     1         . += 4
da7a1dd4 da7a1dd4        0     1         _stack = .
da7a1dd4 da7a1dd4        0     1         _estack = ABSOLUTE ( END_STACK )
da7a1dd4 da7a1dd4        0     1 
d0000000 d0000000       10     4 DEBUG
d0000000 d0000000       10     4         <internal>:(.ARM.exidx)
       0        0       5d     1 .comment
       0        0       5d     1         <internal>:(.comment)
       0        0        4     1 ledger.target
       0        0        4     1         build/flex/obj/sdk/src/app_metadata.o:(ledger.target)
       0        0        4     1                 target
       0        0        b     1 ledger.target_name
       0        0        b     1         build/flex/obj/sdk/src/app_metadata.o:(ledger.target_name)
       0        0        b     1                 target_name
       0        0        a     1 ledger.target_id
       0        0        a     1         build/flex/obj/sdk/src/app_metadata.o:(ledger.target_id)
       0        0        a     1                 target_id
       0        0        5     1 ledger.app_name
       0        0        5     1         build/flex/obj/sdk/src/app_metadata.o:(ledger.app_name)
       0        0        5     1                 app_name
       0        0        5     1 ledger.app_version
       0        0        5     1         build/flex/obj/sdk/src/app_metadata.o:(ledger.app_version)
       0        0        5     1                 app_version
       0        0        2     1 ledger.api_level
       0        0        2     1         build/flex/obj/sdk/src/app_metadata.o:(ledger.api_level)
       0        0        2     1                 api_level
       0        0       11     1 ledger.sdk_name
       0        0       11     1         build/flex/obj/sdk/src/app_metadata.o:(ledger.sdk_name)
       0        0       11     1                 sdk_name
       0        0        7     1 ledger.sdk_version
       0        0        7     1         build/flex/obj/sdk/src/app_metadata.o:(ledger.sdk_version)
       0        0        7     1                 sdk_version
       0        0       28     1 ledger.sdk_hash
       0        0       28     1         build/flex/obj/sdk/src/app_metadata.o:(ledger.sdk_hash)
       0        0       28     1                 sdk_hash
       0        0        4     1 ledger.sdk_graphics
       0        0        4     1         build/flex/obj/sdk/src/app_metadata.o:(ledger.sdk_graphics)
       0        0        4     1                 sdk_graphics
d0000010 d0000010        0     1 PROVIDE ( _nvram = ABSOLUTE ( _nvram_start ) )
d0000010 d0000010        0     1 PROVIDE ( _envram = ABSOLUTE ( _nvram_end ) )
       0        0       45     1 .ARM.attributes
       0        0       45     1         build/flex/gen_src/glyphs.o:(.ARM.attributes)
       0        0     5ef0     4 .symtab
       0        0     5ef0     4         <internal>:(.symtab)
       0        0       f8     1 .shstrtab
       0        0       f8     1         <internal>:(.shstrtab)
       0        0     4e36     1 .strtab
       0        0     4e36     1         <internal>:(.strtab)
